ARM GAS  /var/folders/0z/tsy30v1j4xl4_7kw94k978ww0000gn/T//cc82wOJ3.s 			page 1


   1              		.cpu cortex-m7
   2              		.arch armv7e-m
   3              		.fpu fpv5-d16
   4              		.eabi_attribute 28, 1
   5              		.eabi_attribute 20, 1
   6              		.eabi_attribute 21, 1
   7              		.eabi_attribute 23, 3
   8              		.eabi_attribute 24, 1
   9              		.eabi_attribute 25, 1
  10              		.eabi_attribute 26, 1
  11              		.eabi_attribute 30, 6
  12              		.eabi_attribute 34, 1
  13              		.eabi_attribute 18, 4
  14              		.file	"stm32f767xx_i2c_driver.c"
  15              		.text
  16              	.Ltext0:
  17              		.cfi_sections	.debug_frame
  18              		.global	AHB_PreScaler
  19              		.section	.data.AHB_PreScaler,"aw"
  20              		.align	2
  23              	AHB_PreScaler:
  24 0000 0200     		.short	2
  25 0002 0400     		.short	4
  26 0004 0800     		.short	8
  27 0006 1000     		.short	16
  28 0008 4000     		.short	64
  29 000a 8000     		.short	128
  30 000c 0001     		.short	256
  31 000e 0002     		.short	512
  32              		.global	APB1_PreScaler
  33              		.section	.data.APB1_PreScaler,"aw"
  34              		.align	2
  37              	APB1_PreScaler:
  38 0000 02040810 		.ascii	"\002\004\010\020"
  39              		.global	i2c_timings_4
  40              		.section	.data.i2c_timings_4,"aw"
  41              		.align	2
  44              	i2c_timings_4:
  45 0000 F3914000 		.word	4231667
  46 0004 100D4000 		.word	4197648
  47 0008 02001000 		.word	1048578
  48 000c 01000000 		.word	1
  49              		.global	i2c_timings_8
  50              		.section	.data.i2c_timings_8,"aw"
  51              		.align	2
  54              	i2c_timings_8:
  55 0000 C7C34210 		.word	272810951
  56 0004 130F4210 		.word	272764691
  57 0008 09033100 		.word	3212041
  58 000c 06031000 		.word	1049350
  59              		.global	i2c_timings_16
  60              		.section	.data.i2c_timings_16,"aw"
  61              		.align	2
  64              	i2c_timings_16:
  65 0000 C7C34230 		.word	809681863
  66 0004 5B3D3000 		.word	3161435
  67 0008 09033210 		.word	271713033
ARM GAS  /var/folders/0z/tsy30v1j4xl4_7kw94k978ww0000gn/T//cc82wOJ3.s 			page 2


  68 000c 04022000 		.word	2097668
  69              		.global	i2c_timings_48
  70              		.section	.data.i2c_timings_48,"aw"
  71              		.align	2
  74              	i2c_timings_48:
  75 0000 C7C342B0 		.word	-1337801785
  76 0004 130F42B0 		.word	-1337848045
  77 0008 09033350 		.word	1345520393
  78 000c 03011050 		.word	1343226115
  79              		.global	i2c_timings_54
  80              		.section	.data.i2c_timings_54,"aw"
  81              		.align	2
  84              	i2c_timings_54:
  85 0000 FF7B41D0 		.word	-801014785
  86 0004 312AD340 		.word	1087580721
  87 0008 200DA610 		.word	279317792
  88 000c 16099000 		.word	9439510
  89              		.section	.text.I2C_GenerateStartCondition,"ax",%progbits
  90              		.align	1
  91              		.syntax unified
  92              		.thumb
  93              		.thumb_func
  95              	I2C_GenerateStartCondition:
  96              	.LFB0:
  97              		.file 1 "drivers/Src/stm32f767xx_i2c_driver.c"
   1:drivers/Src/stm32f767xx_i2c_driver.c **** /**
   2:drivers/Src/stm32f767xx_i2c_driver.c ****  * @file stm32f767xx_i2c_driver.c
   3:drivers/Src/stm32f767xx_i2c_driver.c ****  * @author johannes regnier
   4:drivers/Src/stm32f767xx_i2c_driver.c ****  * @brief 
   5:drivers/Src/stm32f767xx_i2c_driver.c ****  * @version 0.1
   6:drivers/Src/stm32f767xx_i2c_driver.c ****  * @date 2022-09-22
   7:drivers/Src/stm32f767xx_i2c_driver.c ****  * 
   8:drivers/Src/stm32f767xx_i2c_driver.c ****  * @copyright Copyright (c) 2022
   9:drivers/Src/stm32f767xx_i2c_driver.c ****  * 
  10:drivers/Src/stm32f767xx_i2c_driver.c ****  */
  11:drivers/Src/stm32f767xx_i2c_driver.c **** 
  12:drivers/Src/stm32f767xx_i2c_driver.c **** 
  13:drivers/Src/stm32f767xx_i2c_driver.c **** #include "stm32f767xx_i2c_driver.h"
  14:drivers/Src/stm32f767xx_i2c_driver.c **** 
  15:drivers/Src/stm32f767xx_i2c_driver.c **** uint16_t AHB_PreScaler[8] = {2, 4, 8, 16, 64, 128, 256, 512};
  16:drivers/Src/stm32f767xx_i2c_driver.c **** uint8_t APB1_PreScaler[4] = {2, 4, 8, 16};
  17:drivers/Src/stm32f767xx_i2c_driver.c **** 
  18:drivers/Src/stm32f767xx_i2c_driver.c **** /*********************************************************************************************
  19:drivers/Src/stm32f767xx_i2c_driver.c ****  *   Hard-coded I2C_TIMINGR timing settings depending on the I2C clock
  20:drivers/Src/stm32f767xx_i2c_driver.c ****  *      See tables in ref manual, section 33.4.9
  21:drivers/Src/stm32f767xx_i2c_driver.c ****  *     | SM_10kHz | SM_100kHz | FM_400kHz | FM+_1000kHz |
  22:drivers/Src/stm32f767xx_i2c_driver.c ****  *  source: https://github.com/MayaPosch/Nodate/blob/master/arch/stm32/cpp/core/src/i2c.cpp
  23:drivers/Src/stm32f767xx_i2c_driver.c ****  * Note: STM32CubeMX calculates and provides the I2C_TIMINGR content in the I2C Config. window.
  24:drivers/Src/stm32f767xx_i2c_driver.c ****  * *******************************************************************************************/
  25:drivers/Src/stm32f767xx_i2c_driver.c **** uint32_t i2c_timings_4[4]  = {0x004091F3, 0x00400D10, 0x00100002, 0x00000001};
  26:drivers/Src/stm32f767xx_i2c_driver.c **** uint32_t i2c_timings_8[4]  = {0x1042C3C7, 0x10420F13, 0x00310309, 0x00100306};
  27:drivers/Src/stm32f767xx_i2c_driver.c **** // uint32_t i2c_timings_16[4] = {0x3042C3C7, 0x30420F13, 0x10320309, 0x00200204};
  28:drivers/Src/stm32f767xx_i2c_driver.c **** uint32_t i2c_timings_16[4] = {0x3042C3C7, 0x303D5B, 0x10320309, 0x00200204}; // SM_100k timing valu
  29:drivers/Src/stm32f767xx_i2c_driver.c **** uint32_t i2c_timings_48[4] = {0xB042C3C7, 0xB0420F13, 0x50330309, 0x50100103};
  30:drivers/Src/stm32f767xx_i2c_driver.c **** uint32_t i2c_timings_54[4] = {0xD0417BFF, 0x40D32A31, 0x10A60D20, 0x00900916};
  31:drivers/Src/stm32f767xx_i2c_driver.c **** 
  32:drivers/Src/stm32f767xx_i2c_driver.c **** 
ARM GAS  /var/folders/0z/tsy30v1j4xl4_7kw94k978ww0000gn/T//cc82wOJ3.s 			page 3


  33:drivers/Src/stm32f767xx_i2c_driver.c **** 
  34:drivers/Src/stm32f767xx_i2c_driver.c **** 
  35:drivers/Src/stm32f767xx_i2c_driver.c **** static void I2C_GenerateStartCondition(I2C_RegDef_t *pI2Cx);
  36:drivers/Src/stm32f767xx_i2c_driver.c **** static void I2C_ExecuteAddressPhaseWrite(I2C_RegDef_t *pI2Cx, uint8_t SlaveAddr);
  37:drivers/Src/stm32f767xx_i2c_driver.c **** static void I2C_ExecuteAddressPhaseRead(I2C_RegDef_t *pI2Cx, uint8_t SlaveAddr);
  38:drivers/Src/stm32f767xx_i2c_driver.c **** static void I2C_GenerateStopCondition(I2C_RegDef_t *pI2Cx);
  39:drivers/Src/stm32f767xx_i2c_driver.c **** 
  40:drivers/Src/stm32f767xx_i2c_driver.c **** static void I2C_GenerateStartCondition(I2C_RegDef_t *pI2Cx)
  41:drivers/Src/stm32f767xx_i2c_driver.c **** {
  98              		.loc 1 41 1
  99              		.cfi_startproc
 100              		@ args = 0, pretend = 0, frame = 8
 101              		@ frame_needed = 1, uses_anonymous_args = 0
 102              		@ link register save eliminated.
 103 0000 80B4     		push	{r7}
 104              		.cfi_def_cfa_offset 4
 105              		.cfi_offset 7, -4
 106 0002 83B0     		sub	sp, sp, #12
 107              		.cfi_def_cfa_offset 16
 108 0004 00AF     		add	r7, sp, #0
 109              		.cfi_def_cfa_register 7
 110 0006 7860     		str	r0, [r7, #4]
  42:drivers/Src/stm32f767xx_i2c_driver.c ****     pI2Cx->CR2 |= (1 << I2C_CR2_START);
 111              		.loc 1 42 16
 112 0008 7B68     		ldr	r3, [r7, #4]
 113 000a 5B68     		ldr	r3, [r3, #4]
 114 000c 43F40052 		orr	r2, r3, #8192
 115 0010 7B68     		ldr	r3, [r7, #4]
 116 0012 5A60     		str	r2, [r3, #4]
  43:drivers/Src/stm32f767xx_i2c_driver.c **** }
 117              		.loc 1 43 1
 118 0014 00BF     		nop
 119 0016 0C37     		adds	r7, r7, #12
 120              		.cfi_def_cfa_offset 4
 121 0018 BD46     		mov	sp, r7
 122              		.cfi_def_cfa_register 13
 123              		@ sp needed
 124 001a 5DF8047B 		ldr	r7, [sp], #4
 125              		.cfi_restore 7
 126              		.cfi_def_cfa_offset 0
 127 001e 7047     		bx	lr
 128              		.cfi_endproc
 129              	.LFE0:
 131              		.section	.text.I2C_ExecuteAddressPhaseWrite,"ax",%progbits
 132              		.align	1
 133              		.syntax unified
 134              		.thumb
 135              		.thumb_func
 137              	I2C_ExecuteAddressPhaseWrite:
 138              	.LFB1:
  44:drivers/Src/stm32f767xx_i2c_driver.c **** 
  45:drivers/Src/stm32f767xx_i2c_driver.c **** 
  46:drivers/Src/stm32f767xx_i2c_driver.c **** static void I2C_ExecuteAddressPhaseWrite(I2C_RegDef_t *pI2Cx, uint8_t SlaveAddr)
  47:drivers/Src/stm32f767xx_i2c_driver.c **** {
 139              		.loc 1 47 1
 140              		.cfi_startproc
 141              		@ args = 0, pretend = 0, frame = 8
ARM GAS  /var/folders/0z/tsy30v1j4xl4_7kw94k978ww0000gn/T//cc82wOJ3.s 			page 4


 142              		@ frame_needed = 1, uses_anonymous_args = 0
 143              		@ link register save eliminated.
 144 0000 80B4     		push	{r7}
 145              		.cfi_def_cfa_offset 4
 146              		.cfi_offset 7, -4
 147 0002 83B0     		sub	sp, sp, #12
 148              		.cfi_def_cfa_offset 16
 149 0004 00AF     		add	r7, sp, #0
 150              		.cfi_def_cfa_register 7
 151 0006 7860     		str	r0, [r7, #4]
 152 0008 0B46     		mov	r3, r1
 153 000a FB70     		strb	r3, [r7, #3]
  48:drivers/Src/stm32f767xx_i2c_driver.c ****     pI2Cx->CR2 |= (SlaveAddr << 1);         // Slave address bit 7:1 (master mode)
 154              		.loc 1 48 16
 155 000c 7B68     		ldr	r3, [r7, #4]
 156 000e 5B68     		ldr	r3, [r3, #4]
 157              		.loc 1 48 30
 158 0010 FA78     		ldrb	r2, [r7, #3]	@ zero_extendqisi2
 159 0012 5200     		lsls	r2, r2, #1
 160              		.loc 1 48 16
 161 0014 1A43     		orrs	r2, r2, r3
 162 0016 7B68     		ldr	r3, [r7, #4]
 163 0018 5A60     		str	r2, [r3, #4]
  49:drivers/Src/stm32f767xx_i2c_driver.c ****     pI2Cx->CR2 &= ~(1 << I2C_CR2_RD_WRN);   // RD_WRN: write transfer direction (master mode)
 164              		.loc 1 49 16
 165 001a 7B68     		ldr	r3, [r7, #4]
 166 001c 5B68     		ldr	r3, [r3, #4]
 167 001e 23F48062 		bic	r2, r3, #1024
 168 0022 7B68     		ldr	r3, [r7, #4]
 169 0024 5A60     		str	r2, [r3, #4]
  50:drivers/Src/stm32f767xx_i2c_driver.c **** }
 170              		.loc 1 50 1
 171 0026 00BF     		nop
 172 0028 0C37     		adds	r7, r7, #12
 173              		.cfi_def_cfa_offset 4
 174 002a BD46     		mov	sp, r7
 175              		.cfi_def_cfa_register 13
 176              		@ sp needed
 177 002c 5DF8047B 		ldr	r7, [sp], #4
 178              		.cfi_restore 7
 179              		.cfi_def_cfa_offset 0
 180 0030 7047     		bx	lr
 181              		.cfi_endproc
 182              	.LFE1:
 184              		.section	.text.I2C_ExecuteAddressPhaseRead,"ax",%progbits
 185              		.align	1
 186              		.syntax unified
 187              		.thumb
 188              		.thumb_func
 190              	I2C_ExecuteAddressPhaseRead:
 191              	.LFB2:
  51:drivers/Src/stm32f767xx_i2c_driver.c **** 
  52:drivers/Src/stm32f767xx_i2c_driver.c **** 
  53:drivers/Src/stm32f767xx_i2c_driver.c **** static void I2C_ExecuteAddressPhaseRead(I2C_RegDef_t *pI2Cx, uint8_t SlaveAddr)
  54:drivers/Src/stm32f767xx_i2c_driver.c **** {
 192              		.loc 1 54 1
 193              		.cfi_startproc
ARM GAS  /var/folders/0z/tsy30v1j4xl4_7kw94k978ww0000gn/T//cc82wOJ3.s 			page 5


 194              		@ args = 0, pretend = 0, frame = 8
 195              		@ frame_needed = 1, uses_anonymous_args = 0
 196              		@ link register save eliminated.
 197 0000 80B4     		push	{r7}
 198              		.cfi_def_cfa_offset 4
 199              		.cfi_offset 7, -4
 200 0002 83B0     		sub	sp, sp, #12
 201              		.cfi_def_cfa_offset 16
 202 0004 00AF     		add	r7, sp, #0
 203              		.cfi_def_cfa_register 7
 204 0006 7860     		str	r0, [r7, #4]
 205 0008 0B46     		mov	r3, r1
 206 000a FB70     		strb	r3, [r7, #3]
  55:drivers/Src/stm32f767xx_i2c_driver.c ****     pI2Cx->CR2 |= (SlaveAddr << 1);         // Slave address bit 7:1 (master mode)
 207              		.loc 1 55 16
 208 000c 7B68     		ldr	r3, [r7, #4]
 209 000e 5B68     		ldr	r3, [r3, #4]
 210              		.loc 1 55 30
 211 0010 FA78     		ldrb	r2, [r7, #3]	@ zero_extendqisi2
 212 0012 5200     		lsls	r2, r2, #1
 213              		.loc 1 55 16
 214 0014 1A43     		orrs	r2, r2, r3
 215 0016 7B68     		ldr	r3, [r7, #4]
 216 0018 5A60     		str	r2, [r3, #4]
  56:drivers/Src/stm32f767xx_i2c_driver.c ****     pI2Cx->CR2 |= (1 << I2C_CR2_RD_WRN);    // RD_WRN: read transfer direction (master mode)
 217              		.loc 1 56 16
 218 001a 7B68     		ldr	r3, [r7, #4]
 219 001c 5B68     		ldr	r3, [r3, #4]
 220 001e 43F48062 		orr	r2, r3, #1024
 221 0022 7B68     		ldr	r3, [r7, #4]
 222 0024 5A60     		str	r2, [r3, #4]
  57:drivers/Src/stm32f767xx_i2c_driver.c **** }
 223              		.loc 1 57 1
 224 0026 00BF     		nop
 225 0028 0C37     		adds	r7, r7, #12
 226              		.cfi_def_cfa_offset 4
 227 002a BD46     		mov	sp, r7
 228              		.cfi_def_cfa_register 13
 229              		@ sp needed
 230 002c 5DF8047B 		ldr	r7, [sp], #4
 231              		.cfi_restore 7
 232              		.cfi_def_cfa_offset 0
 233 0030 7047     		bx	lr
 234              		.cfi_endproc
 235              	.LFE2:
 237              		.section	.text.I2C_GenerateStopCondition,"ax",%progbits
 238              		.align	1
 239              		.syntax unified
 240              		.thumb
 241              		.thumb_func
 243              	I2C_GenerateStopCondition:
 244              	.LFB3:
  58:drivers/Src/stm32f767xx_i2c_driver.c **** 
  59:drivers/Src/stm32f767xx_i2c_driver.c **** 
  60:drivers/Src/stm32f767xx_i2c_driver.c **** static void I2C_GenerateStopCondition(I2C_RegDef_t *pI2Cx)
  61:drivers/Src/stm32f767xx_i2c_driver.c **** {
 245              		.loc 1 61 1
ARM GAS  /var/folders/0z/tsy30v1j4xl4_7kw94k978ww0000gn/T//cc82wOJ3.s 			page 6


 246              		.cfi_startproc
 247              		@ args = 0, pretend = 0, frame = 8
 248              		@ frame_needed = 1, uses_anonymous_args = 0
 249              		@ link register save eliminated.
 250 0000 80B4     		push	{r7}
 251              		.cfi_def_cfa_offset 4
 252              		.cfi_offset 7, -4
 253 0002 83B0     		sub	sp, sp, #12
 254              		.cfi_def_cfa_offset 16
 255 0004 00AF     		add	r7, sp, #0
 256              		.cfi_def_cfa_register 7
 257 0006 7860     		str	r0, [r7, #4]
  62:drivers/Src/stm32f767xx_i2c_driver.c ****     pI2Cx->CR2 |= (1 << I2C_CR2_STOP);
 258              		.loc 1 62 16
 259 0008 7B68     		ldr	r3, [r7, #4]
 260 000a 5B68     		ldr	r3, [r3, #4]
 261 000c 43F48042 		orr	r2, r3, #16384
 262 0010 7B68     		ldr	r3, [r7, #4]
 263 0012 5A60     		str	r2, [r3, #4]
  63:drivers/Src/stm32f767xx_i2c_driver.c **** }
 264              		.loc 1 63 1
 265 0014 00BF     		nop
 266 0016 0C37     		adds	r7, r7, #12
 267              		.cfi_def_cfa_offset 4
 268 0018 BD46     		mov	sp, r7
 269              		.cfi_def_cfa_register 13
 270              		@ sp needed
 271 001a 5DF8047B 		ldr	r7, [sp], #4
 272              		.cfi_restore 7
 273              		.cfi_def_cfa_offset 0
 274 001e 7047     		bx	lr
 275              		.cfi_endproc
 276              	.LFE3:
 278              		.section	.text.I2C_SlaveEnableDisableCallbackEvents,"ax",%progbits
 279              		.align	1
 280              		.global	I2C_SlaveEnableDisableCallbackEvents
 281              		.syntax unified
 282              		.thumb
 283              		.thumb_func
 285              	I2C_SlaveEnableDisableCallbackEvents:
 286              	.LFB4:
  64:drivers/Src/stm32f767xx_i2c_driver.c **** 
  65:drivers/Src/stm32f767xx_i2c_driver.c **** 
  66:drivers/Src/stm32f767xx_i2c_driver.c **** /**
  67:drivers/Src/stm32f767xx_i2c_driver.c ****  * @brief 
  68:drivers/Src/stm32f767xx_i2c_driver.c ****  * 
  69:drivers/Src/stm32f767xx_i2c_driver.c ****  * @param pI2Cx 
  70:drivers/Src/stm32f767xx_i2c_driver.c ****  * @param EnorDi 
  71:drivers/Src/stm32f767xx_i2c_driver.c ****  */
  72:drivers/Src/stm32f767xx_i2c_driver.c **** void I2C_SlaveEnableDisableCallbackEvents(I2C_RegDef_t *pI2Cx, uint8_t EnorDi)
  73:drivers/Src/stm32f767xx_i2c_driver.c **** {
 287              		.loc 1 73 1
 288              		.cfi_startproc
 289              		@ args = 0, pretend = 0, frame = 8
 290              		@ frame_needed = 1, uses_anonymous_args = 0
 291              		@ link register save eliminated.
 292 0000 80B4     		push	{r7}
ARM GAS  /var/folders/0z/tsy30v1j4xl4_7kw94k978ww0000gn/T//cc82wOJ3.s 			page 7


 293              		.cfi_def_cfa_offset 4
 294              		.cfi_offset 7, -4
 295 0002 83B0     		sub	sp, sp, #12
 296              		.cfi_def_cfa_offset 16
 297 0004 00AF     		add	r7, sp, #0
 298              		.cfi_def_cfa_register 7
 299 0006 7860     		str	r0, [r7, #4]
 300 0008 0B46     		mov	r3, r1
 301 000a FB70     		strb	r3, [r7, #3]
  74:drivers/Src/stm32f767xx_i2c_driver.c ****     if (EnorDi == ENABLE)
 302              		.loc 1 74 8
 303 000c FB78     		ldrb	r3, [r7, #3]	@ zero_extendqisi2
 304 000e 012B     		cmp	r3, #1
 305 0010 1ED1     		bne	.L6
  75:drivers/Src/stm32f767xx_i2c_driver.c ****     {
  76:drivers/Src/stm32f767xx_i2c_driver.c ****         
  77:drivers/Src/stm32f767xx_i2c_driver.c ****         //enable TXIE, RXIE, TCIE, STOPIE, ADDRIE, NACKIE Control Bits
  78:drivers/Src/stm32f767xx_i2c_driver.c **** 		pI2Cx->CR1 |= ( 1 << I2C_CR1_TXIE);
 306              		.loc 1 78 14
 307 0012 7B68     		ldr	r3, [r7, #4]
 308 0014 1B68     		ldr	r3, [r3]
 309 0016 43F00202 		orr	r2, r3, #2
 310 001a 7B68     		ldr	r3, [r7, #4]
 311 001c 1A60     		str	r2, [r3]
  79:drivers/Src/stm32f767xx_i2c_driver.c ****         pI2Cx->CR1 |= ( 1 << I2C_CR1_RXIE);
 312              		.loc 1 79 20
 313 001e 7B68     		ldr	r3, [r7, #4]
 314 0020 1B68     		ldr	r3, [r3]
 315 0022 43F00402 		orr	r2, r3, #4
 316 0026 7B68     		ldr	r3, [r7, #4]
 317 0028 1A60     		str	r2, [r3]
  80:drivers/Src/stm32f767xx_i2c_driver.c ****         //pI2Cx->CR1 |= ( 1 << I2C_CR1_TCIE);
  81:drivers/Src/stm32f767xx_i2c_driver.c ****         pI2Cx->CR1 |= ( 1 << I2C_CR1_STOPIE);
 318              		.loc 1 81 20
 319 002a 7B68     		ldr	r3, [r7, #4]
 320 002c 1B68     		ldr	r3, [r3]
 321 002e 43F02002 		orr	r2, r3, #32
 322 0032 7B68     		ldr	r3, [r7, #4]
 323 0034 1A60     		str	r2, [r3]
  82:drivers/Src/stm32f767xx_i2c_driver.c ****         pI2Cx->CR1 |= ( 1 << I2C_CR1_ADDRIE);
 324              		.loc 1 82 20
 325 0036 7B68     		ldr	r3, [r7, #4]
 326 0038 1B68     		ldr	r3, [r3]
 327 003a 43F00802 		orr	r2, r3, #8
 328 003e 7B68     		ldr	r3, [r7, #4]
 329 0040 1A60     		str	r2, [r3]
  83:drivers/Src/stm32f767xx_i2c_driver.c ****         pI2Cx->CR1 |= ( 1 << I2C_CR1_NACKIE);
 330              		.loc 1 83 20
 331 0042 7B68     		ldr	r3, [r7, #4]
 332 0044 1B68     		ldr	r3, [r3]
 333 0046 43F01002 		orr	r2, r3, #16
 334 004a 7B68     		ldr	r3, [r7, #4]
 335 004c 1A60     		str	r2, [r3]
  84:drivers/Src/stm32f767xx_i2c_driver.c **** 
  85:drivers/Src/stm32f767xx_i2c_driver.c ****         //enable ERRIE Control Bit
  86:drivers/Src/stm32f767xx_i2c_driver.c **** 		//pI2Cx->CR1 |= ( 1 << I2C_CR1_ERRIE);
  87:drivers/Src/stm32f767xx_i2c_driver.c **** 
ARM GAS  /var/folders/0z/tsy30v1j4xl4_7kw94k978ww0000gn/T//cc82wOJ3.s 			page 8


  88:drivers/Src/stm32f767xx_i2c_driver.c ****         // enable RELOAD
  89:drivers/Src/stm32f767xx_i2c_driver.c ****         //pI2Cx->CR2 |= (1 << I2C_CR2_RELOAD);
  90:drivers/Src/stm32f767xx_i2c_driver.c **** 
  91:drivers/Src/stm32f767xx_i2c_driver.c ****         // NBYTES initialized to 0x1
  92:drivers/Src/stm32f767xx_i2c_driver.c ****         //pI2Cx->CR2 |= (1 << I2C_CR2_NBYTES);  
  93:drivers/Src/stm32f767xx_i2c_driver.c **** 
  94:drivers/Src/stm32f767xx_i2c_driver.c ****         
  95:drivers/Src/stm32f767xx_i2c_driver.c ****     }
  96:drivers/Src/stm32f767xx_i2c_driver.c ****     else
  97:drivers/Src/stm32f767xx_i2c_driver.c ****     {
  98:drivers/Src/stm32f767xx_i2c_driver.c ****         //disable TXIE, RXIE, TCIE, STOPIE, ADDRIE, NACKIE Control Bits
  99:drivers/Src/stm32f767xx_i2c_driver.c **** 		pI2Cx->CR1 &= ~( 1 << I2C_CR1_TXIE);
 100:drivers/Src/stm32f767xx_i2c_driver.c ****         pI2Cx->CR1 &= ~( 1 << I2C_CR1_RXIE);
 101:drivers/Src/stm32f767xx_i2c_driver.c ****         //pI2Cx->CR1 &= ~( 1 << I2C_CR1_TCIE);
 102:drivers/Src/stm32f767xx_i2c_driver.c ****         pI2Cx->CR1 &= ~( 1 << I2C_CR1_STOPIE);
 103:drivers/Src/stm32f767xx_i2c_driver.c ****         pI2Cx->CR1 &= ~( 1 << I2C_CR1_ADDRIE);
 104:drivers/Src/stm32f767xx_i2c_driver.c ****         pI2Cx->CR1 &= ~( 1 << I2C_CR1_NACKIE);
 105:drivers/Src/stm32f767xx_i2c_driver.c **** 
 106:drivers/Src/stm32f767xx_i2c_driver.c ****         //disable ERRIE Control Bit
 107:drivers/Src/stm32f767xx_i2c_driver.c **** 		//pI2Cx->CR1 &= ~( 1 << I2C_CR1_ERRIE);
 108:drivers/Src/stm32f767xx_i2c_driver.c **** 
 109:drivers/Src/stm32f767xx_i2c_driver.c ****        
 110:drivers/Src/stm32f767xx_i2c_driver.c ****     }
 111:drivers/Src/stm32f767xx_i2c_driver.c **** }
 336              		.loc 1 111 1
 337 004e 1DE0     		b	.L8
 338              	.L6:
  99:drivers/Src/stm32f767xx_i2c_driver.c ****         pI2Cx->CR1 &= ~( 1 << I2C_CR1_RXIE);
 339              		.loc 1 99 14
 340 0050 7B68     		ldr	r3, [r7, #4]
 341 0052 1B68     		ldr	r3, [r3]
 342 0054 23F00202 		bic	r2, r3, #2
 343 0058 7B68     		ldr	r3, [r7, #4]
 344 005a 1A60     		str	r2, [r3]
 100:drivers/Src/stm32f767xx_i2c_driver.c ****         //pI2Cx->CR1 &= ~( 1 << I2C_CR1_TCIE);
 345              		.loc 1 100 20
 346 005c 7B68     		ldr	r3, [r7, #4]
 347 005e 1B68     		ldr	r3, [r3]
 348 0060 23F00402 		bic	r2, r3, #4
 349 0064 7B68     		ldr	r3, [r7, #4]
 350 0066 1A60     		str	r2, [r3]
 102:drivers/Src/stm32f767xx_i2c_driver.c ****         pI2Cx->CR1 &= ~( 1 << I2C_CR1_ADDRIE);
 351              		.loc 1 102 20
 352 0068 7B68     		ldr	r3, [r7, #4]
 353 006a 1B68     		ldr	r3, [r3]
 354 006c 23F02002 		bic	r2, r3, #32
 355 0070 7B68     		ldr	r3, [r7, #4]
 356 0072 1A60     		str	r2, [r3]
 103:drivers/Src/stm32f767xx_i2c_driver.c ****         pI2Cx->CR1 &= ~( 1 << I2C_CR1_NACKIE);
 357              		.loc 1 103 20
 358 0074 7B68     		ldr	r3, [r7, #4]
 359 0076 1B68     		ldr	r3, [r3]
 360 0078 23F00802 		bic	r2, r3, #8
 361 007c 7B68     		ldr	r3, [r7, #4]
 362 007e 1A60     		str	r2, [r3]
 104:drivers/Src/stm32f767xx_i2c_driver.c **** 
 363              		.loc 1 104 20
ARM GAS  /var/folders/0z/tsy30v1j4xl4_7kw94k978ww0000gn/T//cc82wOJ3.s 			page 9


 364 0080 7B68     		ldr	r3, [r7, #4]
 365 0082 1B68     		ldr	r3, [r3]
 366 0084 23F01002 		bic	r2, r3, #16
 367 0088 7B68     		ldr	r3, [r7, #4]
 368 008a 1A60     		str	r2, [r3]
 369              	.L8:
 370              		.loc 1 111 1
 371 008c 00BF     		nop
 372 008e 0C37     		adds	r7, r7, #12
 373              		.cfi_def_cfa_offset 4
 374 0090 BD46     		mov	sp, r7
 375              		.cfi_def_cfa_register 13
 376              		@ sp needed
 377 0092 5DF8047B 		ldr	r7, [sp], #4
 378              		.cfi_restore 7
 379              		.cfi_def_cfa_offset 0
 380 0096 7047     		bx	lr
 381              		.cfi_endproc
 382              	.LFE4:
 384              		.section	.text.I2C_PeripheralControl,"ax",%progbits
 385              		.align	1
 386              		.global	I2C_PeripheralControl
 387              		.syntax unified
 388              		.thumb
 389              		.thumb_func
 391              	I2C_PeripheralControl:
 392              	.LFB5:
 112:drivers/Src/stm32f767xx_i2c_driver.c **** 
 113:drivers/Src/stm32f767xx_i2c_driver.c **** 
 114:drivers/Src/stm32f767xx_i2c_driver.c **** /**
 115:drivers/Src/stm32f767xx_i2c_driver.c ****  * @brief 
 116:drivers/Src/stm32f767xx_i2c_driver.c ****  * 
 117:drivers/Src/stm32f767xx_i2c_driver.c ****  * @param pI2Cx 
 118:drivers/Src/stm32f767xx_i2c_driver.c ****  * @param EnOrDi 
 119:drivers/Src/stm32f767xx_i2c_driver.c ****  */
 120:drivers/Src/stm32f767xx_i2c_driver.c **** void I2C_PeripheralControl(I2C_RegDef_t *pI2Cx, uint8_t EnOrDi)
 121:drivers/Src/stm32f767xx_i2c_driver.c **** {
 393              		.loc 1 121 1
 394              		.cfi_startproc
 395              		@ args = 0, pretend = 0, frame = 8
 396              		@ frame_needed = 1, uses_anonymous_args = 0
 397              		@ link register save eliminated.
 398 0000 80B4     		push	{r7}
 399              		.cfi_def_cfa_offset 4
 400              		.cfi_offset 7, -4
 401 0002 83B0     		sub	sp, sp, #12
 402              		.cfi_def_cfa_offset 16
 403 0004 00AF     		add	r7, sp, #0
 404              		.cfi_def_cfa_register 7
 405 0006 7860     		str	r0, [r7, #4]
 406 0008 0B46     		mov	r3, r1
 407 000a FB70     		strb	r3, [r7, #3]
 122:drivers/Src/stm32f767xx_i2c_driver.c **** 	if(EnOrDi == ENABLE)
 408              		.loc 1 122 4
 409 000c FB78     		ldrb	r3, [r7, #3]	@ zero_extendqisi2
 410 000e 012B     		cmp	r3, #1
 411 0010 06D1     		bne	.L10
ARM GAS  /var/folders/0z/tsy30v1j4xl4_7kw94k978ww0000gn/T//cc82wOJ3.s 			page 10


 123:drivers/Src/stm32f767xx_i2c_driver.c **** 	{
 124:drivers/Src/stm32f767xx_i2c_driver.c **** 		pI2Cx->CR1 |= (1 << I2C_CR1_PE);
 412              		.loc 1 124 14
 413 0012 7B68     		ldr	r3, [r7, #4]
 414 0014 1B68     		ldr	r3, [r3]
 415 0016 43F00102 		orr	r2, r3, #1
 416 001a 7B68     		ldr	r3, [r7, #4]
 417 001c 1A60     		str	r2, [r3]
 125:drivers/Src/stm32f767xx_i2c_driver.c **** 	}else
 126:drivers/Src/stm32f767xx_i2c_driver.c **** 	{
 127:drivers/Src/stm32f767xx_i2c_driver.c **** 		pI2Cx->CR1 &= ~(1 << I2C_CR1_PE);
 128:drivers/Src/stm32f767xx_i2c_driver.c **** 	}
 129:drivers/Src/stm32f767xx_i2c_driver.c **** 
 130:drivers/Src/stm32f767xx_i2c_driver.c **** }
 418              		.loc 1 130 1
 419 001e 05E0     		b	.L12
 420              	.L10:
 127:drivers/Src/stm32f767xx_i2c_driver.c **** 	}
 421              		.loc 1 127 14
 422 0020 7B68     		ldr	r3, [r7, #4]
 423 0022 1B68     		ldr	r3, [r3]
 424 0024 23F00102 		bic	r2, r3, #1
 425 0028 7B68     		ldr	r3, [r7, #4]
 426 002a 1A60     		str	r2, [r3]
 427              	.L12:
 428              		.loc 1 130 1
 429 002c 00BF     		nop
 430 002e 0C37     		adds	r7, r7, #12
 431              		.cfi_def_cfa_offset 4
 432 0030 BD46     		mov	sp, r7
 433              		.cfi_def_cfa_register 13
 434              		@ sp needed
 435 0032 5DF8047B 		ldr	r7, [sp], #4
 436              		.cfi_restore 7
 437              		.cfi_def_cfa_offset 0
 438 0036 7047     		bx	lr
 439              		.cfi_endproc
 440              	.LFE5:
 442              		.section	.text.RCC_GetPLLOutputClock,"ax",%progbits
 443              		.align	1
 444              		.global	RCC_GetPLLOutputClock
 445              		.syntax unified
 446              		.thumb
 447              		.thumb_func
 449              	RCC_GetPLLOutputClock:
 450              	.LFB6:
 131:drivers/Src/stm32f767xx_i2c_driver.c **** 
 132:drivers/Src/stm32f767xx_i2c_driver.c **** 
 133:drivers/Src/stm32f767xx_i2c_driver.c **** uint32_t RCC_GetPLLOutputClock(void)
 134:drivers/Src/stm32f767xx_i2c_driver.c **** {
 451              		.loc 1 134 1
 452              		.cfi_startproc
 453              		@ args = 0, pretend = 0, frame = 8
 454              		@ frame_needed = 1, uses_anonymous_args = 0
 455              		@ link register save eliminated.
 456 0000 80B4     		push	{r7}
 457              		.cfi_def_cfa_offset 4
ARM GAS  /var/folders/0z/tsy30v1j4xl4_7kw94k978ww0000gn/T//cc82wOJ3.s 			page 11


 458              		.cfi_offset 7, -4
 459 0002 83B0     		sub	sp, sp, #12
 460              		.cfi_def_cfa_offset 16
 461 0004 00AF     		add	r7, sp, #0
 462              		.cfi_def_cfa_register 7
 135:drivers/Src/stm32f767xx_i2c_driver.c ****     uint32_t PLLOutputClock = 0;
 463              		.loc 1 135 14
 464 0006 0023     		movs	r3, #0
 465 0008 7B60     		str	r3, [r7, #4]
 136:drivers/Src/stm32f767xx_i2c_driver.c ****     return PLLOutputClock; // TODO
 466              		.loc 1 136 12
 467 000a 7B68     		ldr	r3, [r7, #4]
 137:drivers/Src/stm32f767xx_i2c_driver.c **** }
 468              		.loc 1 137 1
 469 000c 1846     		mov	r0, r3
 470 000e 0C37     		adds	r7, r7, #12
 471              		.cfi_def_cfa_offset 4
 472 0010 BD46     		mov	sp, r7
 473              		.cfi_def_cfa_register 13
 474              		@ sp needed
 475 0012 5DF8047B 		ldr	r7, [sp], #4
 476              		.cfi_restore 7
 477              		.cfi_def_cfa_offset 0
 478 0016 7047     		bx	lr
 479              		.cfi_endproc
 480              	.LFE6:
 482              		.section	.text.RCC_GetPCLK1Value,"ax",%progbits
 483              		.align	1
 484              		.global	RCC_GetPCLK1Value
 485              		.syntax unified
 486              		.thumb
 487              		.thumb_func
 489              	RCC_GetPCLK1Value:
 490              	.LFB7:
 138:drivers/Src/stm32f767xx_i2c_driver.c **** 
 139:drivers/Src/stm32f767xx_i2c_driver.c **** 
 140:drivers/Src/stm32f767xx_i2c_driver.c **** 
 141:drivers/Src/stm32f767xx_i2c_driver.c **** /**
 142:drivers/Src/stm32f767xx_i2c_driver.c ****  * @brief Return clock speed of APB1: System Clock--->AHB_prescaler--->APB1_Prescaler--->PCLK1 cloc
 143:drivers/Src/stm32f767xx_i2c_driver.c ****  * 
 144:drivers/Src/stm32f767xx_i2c_driver.c ****  * @return uint32_t 
 145:drivers/Src/stm32f767xx_i2c_driver.c ****  */
 146:drivers/Src/stm32f767xx_i2c_driver.c **** uint32_t RCC_GetPCLK1Value(void)
 147:drivers/Src/stm32f767xx_i2c_driver.c **** {
 491              		.loc 1 147 1
 492              		.cfi_startproc
 493              		@ args = 0, pretend = 0, frame = 16
 494              		@ frame_needed = 1, uses_anonymous_args = 0
 495 0000 80B5     		push	{r7, lr}
 496              		.cfi_def_cfa_offset 8
 497              		.cfi_offset 7, -8
 498              		.cfi_offset 14, -4
 499 0002 84B0     		sub	sp, sp, #16
 500              		.cfi_def_cfa_offset 24
 501 0004 00AF     		add	r7, sp, #0
 502              		.cfi_def_cfa_register 7
 148:drivers/Src/stm32f767xx_i2c_driver.c ****     uint32_t pclk1;
ARM GAS  /var/folders/0z/tsy30v1j4xl4_7kw94k978ww0000gn/T//cc82wOJ3.s 			page 12


 149:drivers/Src/stm32f767xx_i2c_driver.c ****     uint32_t SystemClk;
 150:drivers/Src/stm32f767xx_i2c_driver.c ****     uint16_t ahbp;
 151:drivers/Src/stm32f767xx_i2c_driver.c ****     uint8_t abp1p;
 152:drivers/Src/stm32f767xx_i2c_driver.c **** 
 153:drivers/Src/stm32f767xx_i2c_driver.c ****     uint8_t clksource;
 154:drivers/Src/stm32f767xx_i2c_driver.c ****     uint8_t temp;
 155:drivers/Src/stm32f767xx_i2c_driver.c **** 
 156:drivers/Src/stm32f767xx_i2c_driver.c ****     clksource = (RCC->CFGR >> 2) & 0x3; // check SWS bits 2 and 3 (bring to lsb position and mask)
 503              		.loc 1 156 21
 504 0006 254B     		ldr	r3, .L24
 505 0008 9B68     		ldr	r3, [r3, #8]
 506              		.loc 1 156 28
 507 000a 9B08     		lsrs	r3, r3, #2
 508              		.loc 1 156 34
 509 000c DBB2     		uxtb	r3, r3
 510              		.loc 1 156 15
 511 000e 03F00303 		and	r3, r3, #3
 512 0012 3B72     		strb	r3, [r7, #8]
 157:drivers/Src/stm32f767xx_i2c_driver.c **** 
 158:drivers/Src/stm32f767xx_i2c_driver.c ****     if (clksource == 0) // clock source is HSI
 513              		.loc 1 158 8
 514 0014 3B7A     		ldrb	r3, [r7, #8]	@ zero_extendqisi2
 515 0016 002B     		cmp	r3, #0
 516 0018 02D1     		bne	.L16
 159:drivers/Src/stm32f767xx_i2c_driver.c ****     {
 160:drivers/Src/stm32f767xx_i2c_driver.c ****         SystemClk = 16000000;
 517              		.loc 1 160 19
 518 001a 214B     		ldr	r3, .L24+4
 519 001c FB60     		str	r3, [r7, #12]
 520 001e 0BE0     		b	.L17
 521              	.L16:
 161:drivers/Src/stm32f767xx_i2c_driver.c ****     }else if (clksource == 1) // clock source is HSE
 522              		.loc 1 161 14
 523 0020 3B7A     		ldrb	r3, [r7, #8]	@ zero_extendqisi2
 524 0022 012B     		cmp	r3, #1
 525 0024 02D1     		bne	.L18
 162:drivers/Src/stm32f767xx_i2c_driver.c ****     {
 163:drivers/Src/stm32f767xx_i2c_driver.c ****         SystemClk = 8000000;
 526              		.loc 1 163 19
 527 0026 1F4B     		ldr	r3, .L24+8
 528 0028 FB60     		str	r3, [r7, #12]
 529 002a 05E0     		b	.L17
 530              	.L18:
 164:drivers/Src/stm32f767xx_i2c_driver.c ****     }else if (clksource == 2) // clock source is PLL
 531              		.loc 1 164 14
 532 002c 3B7A     		ldrb	r3, [r7, #8]	@ zero_extendqisi2
 533 002e 022B     		cmp	r3, #2
 534 0030 02D1     		bne	.L17
 165:drivers/Src/stm32f767xx_i2c_driver.c ****     {
 166:drivers/Src/stm32f767xx_i2c_driver.c ****         SystemClk = RCC_GetPLLOutputClock();
 535              		.loc 1 166 21
 536 0032 FFF7FEFF 		bl	RCC_GetPLLOutputClock
 537 0036 F860     		str	r0, [r7, #12]
 538              	.L17:
 167:drivers/Src/stm32f767xx_i2c_driver.c ****     }
 168:drivers/Src/stm32f767xx_i2c_driver.c **** 
 169:drivers/Src/stm32f767xx_i2c_driver.c ****     // for AHB prescaler
ARM GAS  /var/folders/0z/tsy30v1j4xl4_7kw94k978ww0000gn/T//cc82wOJ3.s 			page 13


 170:drivers/Src/stm32f767xx_i2c_driver.c ****     temp = (RCC->CFGR >> 4) & 0xF;  // check HPRE bits 4 to 7 (bring to lsb position and mask)
 539              		.loc 1 170 16
 540 0038 184B     		ldr	r3, .L24
 541 003a 9B68     		ldr	r3, [r3, #8]
 542              		.loc 1 170 23
 543 003c 1B09     		lsrs	r3, r3, #4
 544              		.loc 1 170 29
 545 003e DBB2     		uxtb	r3, r3
 546              		.loc 1 170 10
 547 0040 03F00F03 		and	r3, r3, #15
 548 0044 FB71     		strb	r3, [r7, #7]
 171:drivers/Src/stm32f767xx_i2c_driver.c ****     if (temp < 8)
 549              		.loc 1 171 8
 550 0046 FB79     		ldrb	r3, [r7, #7]	@ zero_extendqisi2
 551 0048 072B     		cmp	r3, #7
 552 004a 02D8     		bhi	.L19
 172:drivers/Src/stm32f767xx_i2c_driver.c ****     {
 173:drivers/Src/stm32f767xx_i2c_driver.c ****         ahbp = 1;
 553              		.loc 1 173 14
 554 004c 0123     		movs	r3, #1
 555 004e 7B81     		strh	r3, [r7, #10]	@ movhi
 556 0050 05E0     		b	.L20
 557              	.L19:
 174:drivers/Src/stm32f767xx_i2c_driver.c ****     }else
 175:drivers/Src/stm32f767xx_i2c_driver.c ****     {
 176:drivers/Src/stm32f767xx_i2c_driver.c ****         ahbp = AHB_PreScaler[temp - 8]; // remove 8 to index to get: 8->2, 9->4, 10->8, ..., 15->51
 558              		.loc 1 176 35
 559 0052 FB79     		ldrb	r3, [r7, #7]	@ zero_extendqisi2
 560 0054 083B     		subs	r3, r3, #8
 561              		.loc 1 176 14
 562 0056 144A     		ldr	r2, .L24+12
 563 0058 32F81330 		ldrh	r3, [r2, r3, lsl #1]	@ movhi
 564 005c 7B81     		strh	r3, [r7, #10]	@ movhi
 565              	.L20:
 177:drivers/Src/stm32f767xx_i2c_driver.c ****     }
 178:drivers/Src/stm32f767xx_i2c_driver.c **** 
 179:drivers/Src/stm32f767xx_i2c_driver.c ****     // for APB1 prescaler
 180:drivers/Src/stm32f767xx_i2c_driver.c ****     temp = (RCC->CFGR >> 10) & 0x7;  // check PPRE bits 10 to 12 (bring to lsb position and mask)
 566              		.loc 1 180 16
 567 005e 0F4B     		ldr	r3, .L24
 568 0060 9B68     		ldr	r3, [r3, #8]
 569              		.loc 1 180 23
 570 0062 9B0A     		lsrs	r3, r3, #10
 571              		.loc 1 180 30
 572 0064 DBB2     		uxtb	r3, r3
 573              		.loc 1 180 10
 574 0066 03F00703 		and	r3, r3, #7
 575 006a FB71     		strb	r3, [r7, #7]
 181:drivers/Src/stm32f767xx_i2c_driver.c ****     if (temp < 4)
 576              		.loc 1 181 8
 577 006c FB79     		ldrb	r3, [r7, #7]	@ zero_extendqisi2
 578 006e 032B     		cmp	r3, #3
 579 0070 02D8     		bhi	.L21
 182:drivers/Src/stm32f767xx_i2c_driver.c ****     {
 183:drivers/Src/stm32f767xx_i2c_driver.c ****         abp1p = 1;
 580              		.loc 1 183 15
 581 0072 0123     		movs	r3, #1
ARM GAS  /var/folders/0z/tsy30v1j4xl4_7kw94k978ww0000gn/T//cc82wOJ3.s 			page 14


 582 0074 7B72     		strb	r3, [r7, #9]
 583 0076 04E0     		b	.L22
 584              	.L21:
 184:drivers/Src/stm32f767xx_i2c_driver.c ****     }else
 185:drivers/Src/stm32f767xx_i2c_driver.c ****     {
 186:drivers/Src/stm32f767xx_i2c_driver.c ****         abp1p = APB1_PreScaler[temp - 4]; // remove 4 to index to get: 4->2, 5->4, 6->8, 7->16
 585              		.loc 1 186 37
 586 0078 FB79     		ldrb	r3, [r7, #7]	@ zero_extendqisi2
 587 007a 043B     		subs	r3, r3, #4
 588              		.loc 1 186 15
 589 007c 0B4A     		ldr	r2, .L24+16
 590 007e D35C     		ldrb	r3, [r2, r3]
 591 0080 7B72     		strb	r3, [r7, #9]
 592              	.L22:
 187:drivers/Src/stm32f767xx_i2c_driver.c ****     }
 188:drivers/Src/stm32f767xx_i2c_driver.c **** 
 189:drivers/Src/stm32f767xx_i2c_driver.c ****     pclk1 = (SystemClk / ahbp) / abp1p;
 593              		.loc 1 189 24
 594 0082 7B89     		ldrh	r3, [r7, #10]
 595 0084 FA68     		ldr	r2, [r7, #12]
 596 0086 B2FBF3F2 		udiv	r2, r2, r3
 597              		.loc 1 189 32
 598 008a 7B7A     		ldrb	r3, [r7, #9]	@ zero_extendqisi2
 599              		.loc 1 189 11
 600 008c B2FBF3F3 		udiv	r3, r2, r3
 601 0090 3B60     		str	r3, [r7]
 190:drivers/Src/stm32f767xx_i2c_driver.c **** 
 191:drivers/Src/stm32f767xx_i2c_driver.c ****     return pclk1;
 602              		.loc 1 191 12
 603 0092 3B68     		ldr	r3, [r7]
 192:drivers/Src/stm32f767xx_i2c_driver.c **** }
 604              		.loc 1 192 1
 605 0094 1846     		mov	r0, r3
 606 0096 1037     		adds	r7, r7, #16
 607              		.cfi_def_cfa_offset 8
 608 0098 BD46     		mov	sp, r7
 609              		.cfi_def_cfa_register 13
 610              		@ sp needed
 611 009a 80BD     		pop	{r7, pc}
 612              	.L25:
 613              		.align	2
 614              	.L24:
 615 009c 00380240 		.word	1073887232
 616 00a0 0024F400 		.word	16000000
 617 00a4 00127A00 		.word	8000000
 618 00a8 00000000 		.word	AHB_PreScaler
 619 00ac 00000000 		.word	APB1_PreScaler
 620              		.cfi_endproc
 621              	.LFE7:
 623              		.section	.text.I2C_PeriClockControl,"ax",%progbits
 624              		.align	1
 625              		.global	I2C_PeriClockControl
 626              		.syntax unified
 627              		.thumb
 628              		.thumb_func
 630              	I2C_PeriClockControl:
 631              	.LFB8:
ARM GAS  /var/folders/0z/tsy30v1j4xl4_7kw94k978ww0000gn/T//cc82wOJ3.s 			page 15


 193:drivers/Src/stm32f767xx_i2c_driver.c **** 
 194:drivers/Src/stm32f767xx_i2c_driver.c **** 
 195:drivers/Src/stm32f767xx_i2c_driver.c **** 
 196:drivers/Src/stm32f767xx_i2c_driver.c **** /**
 197:drivers/Src/stm32f767xx_i2c_driver.c ****  * @brief I2C Peripheral Clock Control
 198:drivers/Src/stm32f767xx_i2c_driver.c ****  * 
 199:drivers/Src/stm32f767xx_i2c_driver.c ****  * @param pI2Cx 
 200:drivers/Src/stm32f767xx_i2c_driver.c ****  * @param EnorDi
 201:drivers/Src/stm32f767xx_i2c_driver.c ****  */
 202:drivers/Src/stm32f767xx_i2c_driver.c **** void I2C_PeriClockControl(I2C_RegDef_t *pI2Cx, uint8_t EnorDi)
 203:drivers/Src/stm32f767xx_i2c_driver.c **** {
 632              		.loc 1 203 1
 633              		.cfi_startproc
 634              		@ args = 0, pretend = 0, frame = 8
 635              		@ frame_needed = 1, uses_anonymous_args = 0
 636              		@ link register save eliminated.
 637 0000 80B4     		push	{r7}
 638              		.cfi_def_cfa_offset 4
 639              		.cfi_offset 7, -4
 640 0002 83B0     		sub	sp, sp, #12
 641              		.cfi_def_cfa_offset 16
 642 0004 00AF     		add	r7, sp, #0
 643              		.cfi_def_cfa_register 7
 644 0006 7860     		str	r0, [r7, #4]
 645 0008 0B46     		mov	r3, r1
 646 000a FB70     		strb	r3, [r7, #3]
 204:drivers/Src/stm32f767xx_i2c_driver.c **** 	if(EnorDi == ENABLE)
 647              		.loc 1 204 4
 648 000c FB78     		ldrb	r3, [r7, #3]	@ zero_extendqisi2
 649 000e 012B     		cmp	r3, #1
 650 0010 2BD1     		bne	.L27
 205:drivers/Src/stm32f767xx_i2c_driver.c **** 	{
 206:drivers/Src/stm32f767xx_i2c_driver.c **** 		if(pI2Cx == I2C1)
 651              		.loc 1 206 5
 652 0012 7B68     		ldr	r3, [r7, #4]
 653 0014 2D4A     		ldr	r2, .L36
 654 0016 9342     		cmp	r3, r2
 655 0018 06D1     		bne	.L28
 207:drivers/Src/stm32f767xx_i2c_driver.c **** 		{
 208:drivers/Src/stm32f767xx_i2c_driver.c **** 			I2C1_PCLK_EN();
 656              		.loc 1 208 4
 657 001a 2D4B     		ldr	r3, .L36+4
 658 001c 1B6C     		ldr	r3, [r3, #64]
 659 001e 2C4A     		ldr	r2, .L36+4
 660 0020 43F40013 		orr	r3, r3, #2097152
 661 0024 1364     		str	r3, [r2, #64]
 209:drivers/Src/stm32f767xx_i2c_driver.c **** 		}else if (pI2Cx == I2C2)
 210:drivers/Src/stm32f767xx_i2c_driver.c **** 		{
 211:drivers/Src/stm32f767xx_i2c_driver.c **** 			I2C2_PCLK_EN();
 212:drivers/Src/stm32f767xx_i2c_driver.c **** 		}else if (pI2Cx == I2C3)
 213:drivers/Src/stm32f767xx_i2c_driver.c **** 		{
 214:drivers/Src/stm32f767xx_i2c_driver.c **** 			I2C3_PCLK_EN();
 215:drivers/Src/stm32f767xx_i2c_driver.c **** 		}else if (pI2Cx == I2C4)
 216:drivers/Src/stm32f767xx_i2c_driver.c **** 		{
 217:drivers/Src/stm32f767xx_i2c_driver.c **** 			I2C4_PCLK_EN();
 218:drivers/Src/stm32f767xx_i2c_driver.c **** 		}
 219:drivers/Src/stm32f767xx_i2c_driver.c **** 	}
ARM GAS  /var/folders/0z/tsy30v1j4xl4_7kw94k978ww0000gn/T//cc82wOJ3.s 			page 16


 220:drivers/Src/stm32f767xx_i2c_driver.c **** 	else
 221:drivers/Src/stm32f767xx_i2c_driver.c **** 	{
 222:drivers/Src/stm32f767xx_i2c_driver.c **** 		if(pI2Cx == I2C1)
 223:drivers/Src/stm32f767xx_i2c_driver.c **** 		{
 224:drivers/Src/stm32f767xx_i2c_driver.c **** 			I2C1_PCLK_DI();
 225:drivers/Src/stm32f767xx_i2c_driver.c **** 		}else if (pI2Cx == I2C2)
 226:drivers/Src/stm32f767xx_i2c_driver.c **** 		{
 227:drivers/Src/stm32f767xx_i2c_driver.c **** 			I2C2_PCLK_DI();
 228:drivers/Src/stm32f767xx_i2c_driver.c **** 		}else if (pI2Cx == I2C3)
 229:drivers/Src/stm32f767xx_i2c_driver.c **** 		{
 230:drivers/Src/stm32f767xx_i2c_driver.c **** 			I2C3_PCLK_DI();
 231:drivers/Src/stm32f767xx_i2c_driver.c **** 		}else if (pI2Cx == I2C4)
 232:drivers/Src/stm32f767xx_i2c_driver.c **** 		{
 233:drivers/Src/stm32f767xx_i2c_driver.c **** 			I2C4_PCLK_DI();
 234:drivers/Src/stm32f767xx_i2c_driver.c **** 		}
 235:drivers/Src/stm32f767xx_i2c_driver.c **** 	}
 236:drivers/Src/stm32f767xx_i2c_driver.c **** 
 237:drivers/Src/stm32f767xx_i2c_driver.c **** }
 662              		.loc 1 237 1
 663 0026 4BE0     		b	.L35
 664              	.L28:
 209:drivers/Src/stm32f767xx_i2c_driver.c **** 		}else if (pI2Cx == I2C2)
 665              		.loc 1 209 12
 666 0028 7B68     		ldr	r3, [r7, #4]
 667 002a 2A4A     		ldr	r2, .L36+8
 668 002c 9342     		cmp	r3, r2
 669 002e 06D1     		bne	.L30
 211:drivers/Src/stm32f767xx_i2c_driver.c **** 		}else if (pI2Cx == I2C3)
 670              		.loc 1 211 4
 671 0030 274B     		ldr	r3, .L36+4
 672 0032 1B6C     		ldr	r3, [r3, #64]
 673 0034 264A     		ldr	r2, .L36+4
 674 0036 43F48003 		orr	r3, r3, #4194304
 675 003a 1364     		str	r3, [r2, #64]
 676              		.loc 1 237 1
 677 003c 40E0     		b	.L35
 678              	.L30:
 212:drivers/Src/stm32f767xx_i2c_driver.c **** 		{
 679              		.loc 1 212 12
 680 003e 7B68     		ldr	r3, [r7, #4]
 681 0040 254A     		ldr	r2, .L36+12
 682 0042 9342     		cmp	r3, r2
 683 0044 06D1     		bne	.L31
 214:drivers/Src/stm32f767xx_i2c_driver.c **** 		}else if (pI2Cx == I2C4)
 684              		.loc 1 214 4
 685 0046 224B     		ldr	r3, .L36+4
 686 0048 1B6C     		ldr	r3, [r3, #64]
 687 004a 214A     		ldr	r2, .L36+4
 688 004c 43F40003 		orr	r3, r3, #8388608
 689 0050 1364     		str	r3, [r2, #64]
 690              		.loc 1 237 1
 691 0052 35E0     		b	.L35
 692              	.L31:
 215:drivers/Src/stm32f767xx_i2c_driver.c **** 		{
 693              		.loc 1 215 12
 694 0054 7B68     		ldr	r3, [r7, #4]
 695 0056 214A     		ldr	r2, .L36+16
ARM GAS  /var/folders/0z/tsy30v1j4xl4_7kw94k978ww0000gn/T//cc82wOJ3.s 			page 17


 696 0058 9342     		cmp	r3, r2
 697 005a 31D1     		bne	.L35
 217:drivers/Src/stm32f767xx_i2c_driver.c **** 		}
 698              		.loc 1 217 4
 699 005c 1C4B     		ldr	r3, .L36+4
 700 005e 1B6C     		ldr	r3, [r3, #64]
 701 0060 1B4A     		ldr	r2, .L36+4
 702 0062 43F08073 		orr	r3, r3, #16777216
 703 0066 1364     		str	r3, [r2, #64]
 704              		.loc 1 237 1
 705 0068 2AE0     		b	.L35
 706              	.L27:
 222:drivers/Src/stm32f767xx_i2c_driver.c **** 		{
 707              		.loc 1 222 5
 708 006a 7B68     		ldr	r3, [r7, #4]
 709 006c 174A     		ldr	r2, .L36
 710 006e 9342     		cmp	r3, r2
 711 0070 06D1     		bne	.L32
 224:drivers/Src/stm32f767xx_i2c_driver.c **** 		}else if (pI2Cx == I2C2)
 712              		.loc 1 224 4
 713 0072 174B     		ldr	r3, .L36+4
 714 0074 1B6C     		ldr	r3, [r3, #64]
 715 0076 164A     		ldr	r2, .L36+4
 716 0078 23F40013 		bic	r3, r3, #2097152
 717 007c 1364     		str	r3, [r2, #64]
 718              		.loc 1 237 1
 719 007e 1FE0     		b	.L35
 720              	.L32:
 225:drivers/Src/stm32f767xx_i2c_driver.c **** 		{
 721              		.loc 1 225 12
 722 0080 7B68     		ldr	r3, [r7, #4]
 723 0082 144A     		ldr	r2, .L36+8
 724 0084 9342     		cmp	r3, r2
 725 0086 06D1     		bne	.L33
 227:drivers/Src/stm32f767xx_i2c_driver.c **** 		}else if (pI2Cx == I2C3)
 726              		.loc 1 227 4
 727 0088 114B     		ldr	r3, .L36+4
 728 008a 1B6C     		ldr	r3, [r3, #64]
 729 008c 104A     		ldr	r2, .L36+4
 730 008e 23F48003 		bic	r3, r3, #4194304
 731 0092 1364     		str	r3, [r2, #64]
 732              		.loc 1 237 1
 733 0094 14E0     		b	.L35
 734              	.L33:
 228:drivers/Src/stm32f767xx_i2c_driver.c **** 		{
 735              		.loc 1 228 12
 736 0096 7B68     		ldr	r3, [r7, #4]
 737 0098 0F4A     		ldr	r2, .L36+12
 738 009a 9342     		cmp	r3, r2
 739 009c 06D1     		bne	.L34
 230:drivers/Src/stm32f767xx_i2c_driver.c **** 		}else if (pI2Cx == I2C4)
 740              		.loc 1 230 4
 741 009e 0C4B     		ldr	r3, .L36+4
 742 00a0 1B6C     		ldr	r3, [r3, #64]
 743 00a2 0B4A     		ldr	r2, .L36+4
 744 00a4 23F40003 		bic	r3, r3, #8388608
 745 00a8 1364     		str	r3, [r2, #64]
ARM GAS  /var/folders/0z/tsy30v1j4xl4_7kw94k978ww0000gn/T//cc82wOJ3.s 			page 18


 746              		.loc 1 237 1
 747 00aa 09E0     		b	.L35
 748              	.L34:
 231:drivers/Src/stm32f767xx_i2c_driver.c **** 		{
 749              		.loc 1 231 12
 750 00ac 7B68     		ldr	r3, [r7, #4]
 751 00ae 0B4A     		ldr	r2, .L36+16
 752 00b0 9342     		cmp	r3, r2
 753 00b2 05D1     		bne	.L35
 233:drivers/Src/stm32f767xx_i2c_driver.c **** 		}
 754              		.loc 1 233 4
 755 00b4 064B     		ldr	r3, .L36+4
 756 00b6 1B6C     		ldr	r3, [r3, #64]
 757 00b8 054A     		ldr	r2, .L36+4
 758 00ba 23F08073 		bic	r3, r3, #16777216
 759 00be 1364     		str	r3, [r2, #64]
 760              	.L35:
 761              		.loc 1 237 1
 762 00c0 00BF     		nop
 763 00c2 0C37     		adds	r7, r7, #12
 764              		.cfi_def_cfa_offset 4
 765 00c4 BD46     		mov	sp, r7
 766              		.cfi_def_cfa_register 13
 767              		@ sp needed
 768 00c6 5DF8047B 		ldr	r7, [sp], #4
 769              		.cfi_restore 7
 770              		.cfi_def_cfa_offset 0
 771 00ca 7047     		bx	lr
 772              	.L37:
 773              		.align	2
 774              	.L36:
 775 00cc 00540040 		.word	1073763328
 776 00d0 00380240 		.word	1073887232
 777 00d4 00580040 		.word	1073764352
 778 00d8 005C0040 		.word	1073765376
 779 00dc 00600040 		.word	1073766400
 780              		.cfi_endproc
 781              	.LFE8:
 783              		.section	.text.I2C_Init,"ax",%progbits
 784              		.align	1
 785              		.global	I2C_Init
 786              		.syntax unified
 787              		.thumb
 788              		.thumb_func
 790              	I2C_Init:
 791              	.LFB9:
 238:drivers/Src/stm32f767xx_i2c_driver.c **** 
 239:drivers/Src/stm32f767xx_i2c_driver.c **** 
 240:drivers/Src/stm32f767xx_i2c_driver.c **** /**
 241:drivers/Src/stm32f767xx_i2c_driver.c ****  * @brief 
 242:drivers/Src/stm32f767xx_i2c_driver.c ****  * 
 243:drivers/Src/stm32f767xx_i2c_driver.c ****  * @param pI2CHandle 
 244:drivers/Src/stm32f767xx_i2c_driver.c ****  */
 245:drivers/Src/stm32f767xx_i2c_driver.c **** void I2C_Init(I2C_Handle_t *pI2CHandle)
 246:drivers/Src/stm32f767xx_i2c_driver.c **** {
 792              		.loc 1 246 1
 793              		.cfi_startproc
ARM GAS  /var/folders/0z/tsy30v1j4xl4_7kw94k978ww0000gn/T//cc82wOJ3.s 			page 19


 794              		@ args = 0, pretend = 0, frame = 16
 795              		@ frame_needed = 1, uses_anonymous_args = 0
 796 0000 80B5     		push	{r7, lr}
 797              		.cfi_def_cfa_offset 8
 798              		.cfi_offset 7, -8
 799              		.cfi_offset 14, -4
 800 0002 84B0     		sub	sp, sp, #16
 801              		.cfi_def_cfa_offset 24
 802 0004 00AF     		add	r7, sp, #0
 803              		.cfi_def_cfa_register 7
 804 0006 7860     		str	r0, [r7, #4]
 247:drivers/Src/stm32f767xx_i2c_driver.c **** 
 248:drivers/Src/stm32f767xx_i2c_driver.c ****     uint32_t tempreg;
 249:drivers/Src/stm32f767xx_i2c_driver.c **** 
 250:drivers/Src/stm32f767xx_i2c_driver.c ****     // enable the clock for the I2Cx peripheral
 251:drivers/Src/stm32f767xx_i2c_driver.c ****     I2C_PeriClockControl(pI2CHandle->pI2Cx, ENABLE);
 805              		.loc 1 251 5
 806 0008 7B68     		ldr	r3, [r7, #4]
 807 000a 1B68     		ldr	r3, [r3]
 808 000c 0121     		movs	r1, #1
 809 000e 1846     		mov	r0, r3
 810 0010 FFF7FEFF 		bl	I2C_PeriClockControl
 252:drivers/Src/stm32f767xx_i2c_driver.c **** 
 253:drivers/Src/stm32f767xx_i2c_driver.c ****     // Slave initialization:
 254:drivers/Src/stm32f767xx_i2c_driver.c ****     pI2CHandle->Mode = I2C_MODE_SLAVE;
 811              		.loc 1 254 22
 812 0014 7B68     		ldr	r3, [r7, #4]
 813 0016 0022     		movs	r2, #0
 814 0018 9A77     		strb	r2, [r3, #30]
 255:drivers/Src/stm32f767xx_i2c_driver.c ****     // program the device own address (I2C_OAR1 bits 1 to 7)
 256:drivers/Src/stm32f767xx_i2c_driver.c ****     tempreg = 0;
 815              		.loc 1 256 13
 816 001a 0023     		movs	r3, #0
 817 001c FB60     		str	r3, [r7, #12]
 257:drivers/Src/stm32f767xx_i2c_driver.c ****     tempreg |= pI2CHandle->I2C_Config.I2C_DeviceAddress << I2C_OAR1_OA1_7BIT;
 818              		.loc 1 257 38
 819 001e 7B68     		ldr	r3, [r7, #4]
 820 0020 1B7A     		ldrb	r3, [r3, #8]	@ zero_extendqisi2
 821              		.loc 1 257 57
 822 0022 5B00     		lsls	r3, r3, #1
 823 0024 1A46     		mov	r2, r3
 824              		.loc 1 257 13
 825 0026 FB68     		ldr	r3, [r7, #12]
 826 0028 1343     		orrs	r3, r3, r2
 827 002a FB60     		str	r3, [r7, #12]
 258:drivers/Src/stm32f767xx_i2c_driver.c ****     pI2CHandle->pI2Cx->OAR1 = tempreg;
 828              		.loc 1 258 15
 829 002c 7B68     		ldr	r3, [r7, #4]
 830 002e 1B68     		ldr	r3, [r3]
 831              		.loc 1 258 29
 832 0030 FA68     		ldr	r2, [r7, #12]
 833 0032 9A60     		str	r2, [r3, #8]
 259:drivers/Src/stm32f767xx_i2c_driver.c ****     // address mode & own address 1 enable
 260:drivers/Src/stm32f767xx_i2c_driver.c ****     pI2CHandle->pI2Cx->OAR1 &= ~(1 << I2C_OAR1_OA1MODE); // 7-bit address
 834              		.loc 1 260 15
 835 0034 7B68     		ldr	r3, [r7, #4]
 836 0036 1B68     		ldr	r3, [r3]
ARM GAS  /var/folders/0z/tsy30v1j4xl4_7kw94k978ww0000gn/T//cc82wOJ3.s 			page 20


 837              		.loc 1 260 29
 838 0038 9A68     		ldr	r2, [r3, #8]
 839              		.loc 1 260 15
 840 003a 7B68     		ldr	r3, [r7, #4]
 841 003c 1B68     		ldr	r3, [r3]
 842              		.loc 1 260 29
 843 003e 22F48062 		bic	r2, r2, #1024
 844 0042 9A60     		str	r2, [r3, #8]
 261:drivers/Src/stm32f767xx_i2c_driver.c ****     pI2CHandle->pI2Cx->OAR1 |= (1 << I2C_OAR1_OA1EN);    // address 1 enable
 845              		.loc 1 261 15
 846 0044 7B68     		ldr	r3, [r7, #4]
 847 0046 1B68     		ldr	r3, [r3]
 848              		.loc 1 261 29
 849 0048 9A68     		ldr	r2, [r3, #8]
 850              		.loc 1 261 15
 851 004a 7B68     		ldr	r3, [r7, #4]
 852 004c 1B68     		ldr	r3, [r3]
 853              		.loc 1 261 29
 854 004e 42F40042 		orr	r2, r2, #32768
 855 0052 9A60     		str	r2, [r3, #8]
 262:drivers/Src/stm32f767xx_i2c_driver.c ****     //pI2CHandle->pI2Cx->CR1 |= (1 << I2C_CR1_SBC); // enable hardware byte control in slave mode
 263:drivers/Src/stm32f767xx_i2c_driver.c **** 
 264:drivers/Src/stm32f767xx_i2c_driver.c ****     // fill I2C_TIMINGR register using hard-coded timings values
 265:drivers/Src/stm32f767xx_i2c_driver.c ****     uint8_t mode = 0;
 856              		.loc 1 265 13
 857 0054 0023     		movs	r3, #0
 858 0056 FB72     		strb	r3, [r7, #11]
 266:drivers/Src/stm32f767xx_i2c_driver.c ****     mode = pI2CHandle->I2C_Config.I2C_SCLSpeed; // mode: SM10k, SM100k, FM or FMPLUS
 859              		.loc 1 266 34
 860 0058 7B68     		ldr	r3, [r7, #4]
 861 005a 5B68     		ldr	r3, [r3, #4]
 862              		.loc 1 266 10
 863 005c FB72     		strb	r3, [r7, #11]
 267:drivers/Src/stm32f767xx_i2c_driver.c ****     if (RCC_GetPCLK1Value() == 8000000)
 864              		.loc 1 267 9
 865 005e FFF7FEFF 		bl	RCC_GetPCLK1Value
 866 0062 0346     		mov	r3, r0
 867              		.loc 1 267 8
 868 0064 1B4A     		ldr	r2, .L44
 869 0066 9342     		cmp	r3, r2
 870 0068 07D1     		bne	.L39
 268:drivers/Src/stm32f767xx_i2c_driver.c ****     {
 269:drivers/Src/stm32f767xx_i2c_driver.c ****         pI2CHandle->pI2Cx->TIMINGR = i2c_timings_8[mode];
 871              		.loc 1 269 51
 872 006a FA7A     		ldrb	r2, [r7, #11]	@ zero_extendqisi2
 873              		.loc 1 269 19
 874 006c 7B68     		ldr	r3, [r7, #4]
 875 006e 1B68     		ldr	r3, [r3]
 876              		.loc 1 269 51
 877 0070 1949     		ldr	r1, .L44+4
 878 0072 51F82220 		ldr	r2, [r1, r2, lsl #2]
 879              		.loc 1 269 36
 880 0076 1A61     		str	r2, [r3, #16]
 270:drivers/Src/stm32f767xx_i2c_driver.c ****     }else if (RCC_GetPCLK1Value() == 16000000)
 271:drivers/Src/stm32f767xx_i2c_driver.c ****     {
 272:drivers/Src/stm32f767xx_i2c_driver.c ****         pI2CHandle->pI2Cx->TIMINGR = i2c_timings_16[mode];
 273:drivers/Src/stm32f767xx_i2c_driver.c ****     }else if (RCC_GetPCLK1Value() == 48000000)
ARM GAS  /var/folders/0z/tsy30v1j4xl4_7kw94k978ww0000gn/T//cc82wOJ3.s 			page 21


 274:drivers/Src/stm32f767xx_i2c_driver.c ****     {
 275:drivers/Src/stm32f767xx_i2c_driver.c ****         pI2CHandle->pI2Cx->TIMINGR = i2c_timings_48[mode];
 276:drivers/Src/stm32f767xx_i2c_driver.c ****     }else if (RCC_GetPCLK1Value() == 54000000)
 277:drivers/Src/stm32f767xx_i2c_driver.c ****     {
 278:drivers/Src/stm32f767xx_i2c_driver.c ****         pI2CHandle->pI2Cx->TIMINGR = i2c_timings_54[mode];
 279:drivers/Src/stm32f767xx_i2c_driver.c ****     }
 280:drivers/Src/stm32f767xx_i2c_driver.c **** }
 881              		.loc 1 280 1
 882 0078 28E0     		b	.L43
 883              	.L39:
 270:drivers/Src/stm32f767xx_i2c_driver.c ****     }else if (RCC_GetPCLK1Value() == 16000000)
 884              		.loc 1 270 15
 885 007a FFF7FEFF 		bl	RCC_GetPCLK1Value
 886 007e 0346     		mov	r3, r0
 270:drivers/Src/stm32f767xx_i2c_driver.c ****     }else if (RCC_GetPCLK1Value() == 16000000)
 887              		.loc 1 270 14
 888 0080 164A     		ldr	r2, .L44+8
 889 0082 9342     		cmp	r3, r2
 890 0084 07D1     		bne	.L41
 272:drivers/Src/stm32f767xx_i2c_driver.c ****     }else if (RCC_GetPCLK1Value() == 48000000)
 891              		.loc 1 272 52
 892 0086 FA7A     		ldrb	r2, [r7, #11]	@ zero_extendqisi2
 272:drivers/Src/stm32f767xx_i2c_driver.c ****     }else if (RCC_GetPCLK1Value() == 48000000)
 893              		.loc 1 272 19
 894 0088 7B68     		ldr	r3, [r7, #4]
 895 008a 1B68     		ldr	r3, [r3]
 272:drivers/Src/stm32f767xx_i2c_driver.c ****     }else if (RCC_GetPCLK1Value() == 48000000)
 896              		.loc 1 272 52
 897 008c 1449     		ldr	r1, .L44+12
 898 008e 51F82220 		ldr	r2, [r1, r2, lsl #2]
 272:drivers/Src/stm32f767xx_i2c_driver.c ****     }else if (RCC_GetPCLK1Value() == 48000000)
 899              		.loc 1 272 36
 900 0092 1A61     		str	r2, [r3, #16]
 901              		.loc 1 280 1
 902 0094 1AE0     		b	.L43
 903              	.L41:
 273:drivers/Src/stm32f767xx_i2c_driver.c ****     {
 904              		.loc 1 273 15
 905 0096 FFF7FEFF 		bl	RCC_GetPCLK1Value
 906 009a 0346     		mov	r3, r0
 273:drivers/Src/stm32f767xx_i2c_driver.c ****     {
 907              		.loc 1 273 14
 908 009c 114A     		ldr	r2, .L44+16
 909 009e 9342     		cmp	r3, r2
 910 00a0 07D1     		bne	.L42
 275:drivers/Src/stm32f767xx_i2c_driver.c ****     }else if (RCC_GetPCLK1Value() == 54000000)
 911              		.loc 1 275 52
 912 00a2 FA7A     		ldrb	r2, [r7, #11]	@ zero_extendqisi2
 275:drivers/Src/stm32f767xx_i2c_driver.c ****     }else if (RCC_GetPCLK1Value() == 54000000)
 913              		.loc 1 275 19
 914 00a4 7B68     		ldr	r3, [r7, #4]
 915 00a6 1B68     		ldr	r3, [r3]
 275:drivers/Src/stm32f767xx_i2c_driver.c ****     }else if (RCC_GetPCLK1Value() == 54000000)
 916              		.loc 1 275 52
 917 00a8 0F49     		ldr	r1, .L44+20
 918 00aa 51F82220 		ldr	r2, [r1, r2, lsl #2]
 275:drivers/Src/stm32f767xx_i2c_driver.c ****     }else if (RCC_GetPCLK1Value() == 54000000)
ARM GAS  /var/folders/0z/tsy30v1j4xl4_7kw94k978ww0000gn/T//cc82wOJ3.s 			page 22


 919              		.loc 1 275 36
 920 00ae 1A61     		str	r2, [r3, #16]
 921              		.loc 1 280 1
 922 00b0 0CE0     		b	.L43
 923              	.L42:
 276:drivers/Src/stm32f767xx_i2c_driver.c ****     {
 924              		.loc 1 276 15
 925 00b2 FFF7FEFF 		bl	RCC_GetPCLK1Value
 926 00b6 0346     		mov	r3, r0
 276:drivers/Src/stm32f767xx_i2c_driver.c ****     {
 927              		.loc 1 276 14
 928 00b8 0C4A     		ldr	r2, .L44+24
 929 00ba 9342     		cmp	r3, r2
 930 00bc 06D1     		bne	.L43
 278:drivers/Src/stm32f767xx_i2c_driver.c ****     }
 931              		.loc 1 278 52
 932 00be FA7A     		ldrb	r2, [r7, #11]	@ zero_extendqisi2
 278:drivers/Src/stm32f767xx_i2c_driver.c ****     }
 933              		.loc 1 278 19
 934 00c0 7B68     		ldr	r3, [r7, #4]
 935 00c2 1B68     		ldr	r3, [r3]
 278:drivers/Src/stm32f767xx_i2c_driver.c ****     }
 936              		.loc 1 278 52
 937 00c4 0A49     		ldr	r1, .L44+28
 938 00c6 51F82220 		ldr	r2, [r1, r2, lsl #2]
 278:drivers/Src/stm32f767xx_i2c_driver.c ****     }
 939              		.loc 1 278 36
 940 00ca 1A61     		str	r2, [r3, #16]
 941              	.L43:
 942              		.loc 1 280 1
 943 00cc 00BF     		nop
 944 00ce 1037     		adds	r7, r7, #16
 945              		.cfi_def_cfa_offset 8
 946 00d0 BD46     		mov	sp, r7
 947              		.cfi_def_cfa_register 13
 948              		@ sp needed
 949 00d2 80BD     		pop	{r7, pc}
 950              	.L45:
 951              		.align	2
 952              	.L44:
 953 00d4 00127A00 		.word	8000000
 954 00d8 00000000 		.word	i2c_timings_8
 955 00dc 0024F400 		.word	16000000
 956 00e0 00000000 		.word	i2c_timings_16
 957 00e4 006CDC02 		.word	48000000
 958 00e8 00000000 		.word	i2c_timings_48
 959 00ec 80F93703 		.word	54000000
 960 00f0 00000000 		.word	i2c_timings_54
 961              		.cfi_endproc
 962              	.LFE9:
 964              		.section	.text.I2C_DeInit,"ax",%progbits
 965              		.align	1
 966              		.global	I2C_DeInit
 967              		.syntax unified
 968              		.thumb
 969              		.thumb_func
 971              	I2C_DeInit:
ARM GAS  /var/folders/0z/tsy30v1j4xl4_7kw94k978ww0000gn/T//cc82wOJ3.s 			page 23


 972              	.LFB10:
 281:drivers/Src/stm32f767xx_i2c_driver.c **** 
 282:drivers/Src/stm32f767xx_i2c_driver.c **** /**
 283:drivers/Src/stm32f767xx_i2c_driver.c ****  * @brief TODO
 284:drivers/Src/stm32f767xx_i2c_driver.c ****  * 
 285:drivers/Src/stm32f767xx_i2c_driver.c ****  * @param pI2Cx 
 286:drivers/Src/stm32f767xx_i2c_driver.c ****  */
 287:drivers/Src/stm32f767xx_i2c_driver.c **** void I2C_DeInit(I2C_RegDef_t *pI2Cx)
 288:drivers/Src/stm32f767xx_i2c_driver.c **** {
 973              		.loc 1 288 1
 974              		.cfi_startproc
 975              		@ args = 0, pretend = 0, frame = 8
 976              		@ frame_needed = 1, uses_anonymous_args = 0
 977              		@ link register save eliminated.
 978 0000 80B4     		push	{r7}
 979              		.cfi_def_cfa_offset 4
 980              		.cfi_offset 7, -4
 981 0002 83B0     		sub	sp, sp, #12
 982              		.cfi_def_cfa_offset 16
 983 0004 00AF     		add	r7, sp, #0
 984              		.cfi_def_cfa_register 7
 985 0006 7860     		str	r0, [r7, #4]
 289:drivers/Src/stm32f767xx_i2c_driver.c **** 
 290:drivers/Src/stm32f767xx_i2c_driver.c **** }
 986              		.loc 1 290 1
 987 0008 00BF     		nop
 988 000a 0C37     		adds	r7, r7, #12
 989              		.cfi_def_cfa_offset 4
 990 000c BD46     		mov	sp, r7
 991              		.cfi_def_cfa_register 13
 992              		@ sp needed
 993 000e 5DF8047B 		ldr	r7, [sp], #4
 994              		.cfi_restore 7
 995              		.cfi_def_cfa_offset 0
 996 0012 7047     		bx	lr
 997              		.cfi_endproc
 998              	.LFE10:
 1000              		.section	.text.I2C_GetFlagStatus,"ax",%progbits
 1001              		.align	1
 1002              		.global	I2C_GetFlagStatus
 1003              		.syntax unified
 1004              		.thumb
 1005              		.thumb_func
 1007              	I2C_GetFlagStatus:
 1008              	.LFB11:
 291:drivers/Src/stm32f767xx_i2c_driver.c **** 
 292:drivers/Src/stm32f767xx_i2c_driver.c **** 
 293:drivers/Src/stm32f767xx_i2c_driver.c **** 
 294:drivers/Src/stm32f767xx_i2c_driver.c **** uint8_t I2C_GetFlagStatus(I2C_RegDef_t *pI2Cx , uint32_t FlagName)
 295:drivers/Src/stm32f767xx_i2c_driver.c **** {
 1009              		.loc 1 295 1
 1010              		.cfi_startproc
 1011              		@ args = 0, pretend = 0, frame = 8
 1012              		@ frame_needed = 1, uses_anonymous_args = 0
 1013              		@ link register save eliminated.
 1014 0000 80B4     		push	{r7}
 1015              		.cfi_def_cfa_offset 4
ARM GAS  /var/folders/0z/tsy30v1j4xl4_7kw94k978ww0000gn/T//cc82wOJ3.s 			page 24


 1016              		.cfi_offset 7, -4
 1017 0002 83B0     		sub	sp, sp, #12
 1018              		.cfi_def_cfa_offset 16
 1019 0004 00AF     		add	r7, sp, #0
 1020              		.cfi_def_cfa_register 7
 1021 0006 7860     		str	r0, [r7, #4]
 1022 0008 3960     		str	r1, [r7]
 296:drivers/Src/stm32f767xx_i2c_driver.c **** 	if(pI2Cx->ISR & FlagName)
 1023              		.loc 1 296 10
 1024 000a 7B68     		ldr	r3, [r7, #4]
 1025 000c 9A69     		ldr	r2, [r3, #24]
 1026              		.loc 1 296 16
 1027 000e 3B68     		ldr	r3, [r7]
 1028 0010 1340     		ands	r3, r3, r2
 1029              		.loc 1 296 4
 1030 0012 002B     		cmp	r3, #0
 1031 0014 01D0     		beq	.L48
 297:drivers/Src/stm32f767xx_i2c_driver.c **** 	{
 298:drivers/Src/stm32f767xx_i2c_driver.c **** 		return FLAG_SET;
 1032              		.loc 1 298 10
 1033 0016 0123     		movs	r3, #1
 1034 0018 00E0     		b	.L49
 1035              	.L48:
 299:drivers/Src/stm32f767xx_i2c_driver.c **** 	}
 300:drivers/Src/stm32f767xx_i2c_driver.c **** 	return FLAG_RESET;
 1036              		.loc 1 300 9
 1037 001a 0023     		movs	r3, #0
 1038              	.L49:
 301:drivers/Src/stm32f767xx_i2c_driver.c **** }
 1039              		.loc 1 301 1
 1040 001c 1846     		mov	r0, r3
 1041 001e 0C37     		adds	r7, r7, #12
 1042              		.cfi_def_cfa_offset 4
 1043 0020 BD46     		mov	sp, r7
 1044              		.cfi_def_cfa_register 13
 1045              		@ sp needed
 1046 0022 5DF8047B 		ldr	r7, [sp], #4
 1047              		.cfi_restore 7
 1048              		.cfi_def_cfa_offset 0
 1049 0026 7047     		bx	lr
 1050              		.cfi_endproc
 1051              	.LFE11:
 1053              		.section	.text.I2C_MasterSendData,"ax",%progbits
 1054              		.align	1
 1055              		.global	I2C_MasterSendData
 1056              		.syntax unified
 1057              		.thumb
 1058              		.thumb_func
 1060              	I2C_MasterSendData:
 1061              	.LFB12:
 302:drivers/Src/stm32f767xx_i2c_driver.c **** 
 303:drivers/Src/stm32f767xx_i2c_driver.c **** 
 304:drivers/Src/stm32f767xx_i2c_driver.c **** /**
 305:drivers/Src/stm32f767xx_i2c_driver.c ****  * @brief I2C Master Mode Send Data
 306:drivers/Src/stm32f767xx_i2c_driver.c ****  * 
 307:drivers/Src/stm32f767xx_i2c_driver.c ****  * @param pI2CHandle    I2C handle
 308:drivers/Src/stm32f767xx_i2c_driver.c ****  * @param pTxbuffer     buffer
ARM GAS  /var/folders/0z/tsy30v1j4xl4_7kw94k978ww0000gn/T//cc82wOJ3.s 			page 25


 309:drivers/Src/stm32f767xx_i2c_driver.c ****  * @param Len           length
 310:drivers/Src/stm32f767xx_i2c_driver.c ****  * @param SlaveAddr     Slave address
 311:drivers/Src/stm32f767xx_i2c_driver.c ****  * @param Sr 
 312:drivers/Src/stm32f767xx_i2c_driver.c ****  */
 313:drivers/Src/stm32f767xx_i2c_driver.c **** void I2C_MasterSendData(I2C_Handle_t *pI2CHandle,uint8_t *pTxBuffer, uint32_t Len, uint8_t SlaveAdd
 314:drivers/Src/stm32f767xx_i2c_driver.c **** {
 1062              		.loc 1 314 1
 1063              		.cfi_startproc
 1064              		@ args = 4, pretend = 0, frame = 16
 1065              		@ frame_needed = 1, uses_anonymous_args = 0
 1066 0000 80B5     		push	{r7, lr}
 1067              		.cfi_def_cfa_offset 8
 1068              		.cfi_offset 7, -8
 1069              		.cfi_offset 14, -4
 1070 0002 84B0     		sub	sp, sp, #16
 1071              		.cfi_def_cfa_offset 24
 1072 0004 00AF     		add	r7, sp, #0
 1073              		.cfi_def_cfa_register 7
 1074 0006 F860     		str	r0, [r7, #12]
 1075 0008 B960     		str	r1, [r7, #8]
 1076 000a 7A60     		str	r2, [r7, #4]
 1077 000c FB70     		strb	r3, [r7, #3]
 315:drivers/Src/stm32f767xx_i2c_driver.c ****     // Send the address of the slave with r/nw bit set to w(0) (total 8 bits )
 316:drivers/Src/stm32f767xx_i2c_driver.c **** 	I2C_ExecuteAddressPhaseWrite(pI2CHandle->pI2Cx,SlaveAddr);
 1078              		.loc 1 316 2
 1079 000e FB68     		ldr	r3, [r7, #12]
 1080 0010 1B68     		ldr	r3, [r3]
 1081 0012 FA78     		ldrb	r2, [r7, #3]	@ zero_extendqisi2
 1082 0014 1146     		mov	r1, r2
 1083 0016 1846     		mov	r0, r3
 1084 0018 FFF7FEFF 		bl	I2C_ExecuteAddressPhaseWrite
 317:drivers/Src/stm32f767xx_i2c_driver.c **** 
 318:drivers/Src/stm32f767xx_i2c_driver.c ****     // Set autoend to 0, and length of data to be transmitted
 319:drivers/Src/stm32f767xx_i2c_driver.c ****     pI2CHandle->pI2Cx->CR2 &= ~(1 << I2C_CR2_AUTOEND);  //software end mode: TC flag is set when NB
 1085              		.loc 1 319 15
 1086 001c FB68     		ldr	r3, [r7, #12]
 1087 001e 1B68     		ldr	r3, [r3]
 1088              		.loc 1 319 28
 1089 0020 5A68     		ldr	r2, [r3, #4]
 1090              		.loc 1 319 15
 1091 0022 FB68     		ldr	r3, [r7, #12]
 1092 0024 1B68     		ldr	r3, [r3]
 1093              		.loc 1 319 28
 1094 0026 22F00072 		bic	r2, r2, #33554432
 1095 002a 5A60     		str	r2, [r3, #4]
 320:drivers/Src/stm32f767xx_i2c_driver.c ****     pI2CHandle->pI2Cx->CR2 |= (Len << I2C_CR2_NBYTES);  //number of bytes to be transmitted
 1096              		.loc 1 320 15
 1097 002c FB68     		ldr	r3, [r7, #12]
 1098 002e 1B68     		ldr	r3, [r3]
 1099              		.loc 1 320 28
 1100 0030 5968     		ldr	r1, [r3, #4]
 1101              		.loc 1 320 36
 1102 0032 7B68     		ldr	r3, [r7, #4]
 1103 0034 1A04     		lsls	r2, r3, #16
 1104              		.loc 1 320 15
 1105 0036 FB68     		ldr	r3, [r7, #12]
 1106 0038 1B68     		ldr	r3, [r3]
ARM GAS  /var/folders/0z/tsy30v1j4xl4_7kw94k978ww0000gn/T//cc82wOJ3.s 			page 26


 1107              		.loc 1 320 28
 1108 003a 0A43     		orrs	r2, r2, r1
 1109 003c 5A60     		str	r2, [r3, #4]
 321:drivers/Src/stm32f767xx_i2c_driver.c **** 
 322:drivers/Src/stm32f767xx_i2c_driver.c ****     // Generate the START condition
 323:drivers/Src/stm32f767xx_i2c_driver.c ****     I2C_GenerateStartCondition(pI2CHandle->pI2Cx);
 1110              		.loc 1 323 5
 1111 003e FB68     		ldr	r3, [r7, #12]
 1112 0040 1B68     		ldr	r3, [r3]
 1113 0042 1846     		mov	r0, r3
 1114 0044 FFF7FEFF 		bl	I2C_GenerateStartCondition
 324:drivers/Src/stm32f767xx_i2c_driver.c **** 
 325:drivers/Src/stm32f767xx_i2c_driver.c ****     // Send the data until Len becomes 0
 326:drivers/Src/stm32f767xx_i2c_driver.c ****     while(Len > 0)
 1115              		.loc 1 326 10
 1116 0048 14E0     		b	.L51
 1117              	.L53:
 327:drivers/Src/stm32f767xx_i2c_driver.c **** 	{
 328:drivers/Src/stm32f767xx_i2c_driver.c **** 		while(! I2C_GetFlagStatus(pI2CHandle->pI2Cx,I2C_FLAG_TXE) ); //Wait till TXE is set
 1118              		.loc 1 328 8
 1119 004a 00BF     		nop
 1120              	.L52:
 1121              		.loc 1 328 11 discriminator 1
 1122 004c FB68     		ldr	r3, [r7, #12]
 1123 004e 1B68     		ldr	r3, [r3]
 1124 0050 0121     		movs	r1, #1
 1125 0052 1846     		mov	r0, r3
 1126 0054 FFF7FEFF 		bl	I2C_GetFlagStatus
 1127 0058 0346     		mov	r3, r0
 1128              		.loc 1 328 9 discriminator 1
 1129 005a 002B     		cmp	r3, #0
 1130 005c F6D0     		beq	.L52
 329:drivers/Src/stm32f767xx_i2c_driver.c **** 		pI2CHandle->pI2Cx->TXDR = *pTxBuffer;
 1131              		.loc 1 329 29
 1132 005e BB68     		ldr	r3, [r7, #8]
 1133 0060 1A78     		ldrb	r2, [r3]	@ zero_extendqisi2
 1134              		.loc 1 329 13
 1135 0062 FB68     		ldr	r3, [r7, #12]
 1136 0064 1B68     		ldr	r3, [r3]
 1137              		.loc 1 329 27
 1138 0066 9A62     		str	r2, [r3, #40]
 330:drivers/Src/stm32f767xx_i2c_driver.c **** 		pTxBuffer++;
 1139              		.loc 1 330 12
 1140 0068 BB68     		ldr	r3, [r7, #8]
 1141 006a 0133     		adds	r3, r3, #1
 1142 006c BB60     		str	r3, [r7, #8]
 331:drivers/Src/stm32f767xx_i2c_driver.c **** 		Len--;
 1143              		.loc 1 331 6
 1144 006e 7B68     		ldr	r3, [r7, #4]
 1145 0070 013B     		subs	r3, r3, #1
 1146 0072 7B60     		str	r3, [r7, #4]
 1147              	.L51:
 326:drivers/Src/stm32f767xx_i2c_driver.c **** 	{
 1148              		.loc 1 326 15
 1149 0074 7B68     		ldr	r3, [r7, #4]
 1150 0076 002B     		cmp	r3, #0
 1151 0078 E7D1     		bne	.L53
ARM GAS  /var/folders/0z/tsy30v1j4xl4_7kw94k978ww0000gn/T//cc82wOJ3.s 			page 27


 332:drivers/Src/stm32f767xx_i2c_driver.c **** 	}
 333:drivers/Src/stm32f767xx_i2c_driver.c **** 
 334:drivers/Src/stm32f767xx_i2c_driver.c ****     // wait until TC flag is set (when NBYTES data are transferred)
 335:drivers/Src/stm32f767xx_i2c_driver.c ****     while(!(I2C_GetFlagStatus(pI2CHandle->pI2Cx,I2C_FLAG_TC)));
 1152              		.loc 1 335 10
 1153 007a 00BF     		nop
 1154              	.L54:
 1155              		.loc 1 335 13 discriminator 1
 1156 007c FB68     		ldr	r3, [r7, #12]
 1157 007e 1B68     		ldr	r3, [r3]
 1158 0080 4021     		movs	r1, #64
 1159 0082 1846     		mov	r0, r3
 1160 0084 FFF7FEFF 		bl	I2C_GetFlagStatus
 1161 0088 0346     		mov	r3, r0
 1162              		.loc 1 335 11 discriminator 1
 1163 008a 002B     		cmp	r3, #0
 1164 008c F6D0     		beq	.L54
 336:drivers/Src/stm32f767xx_i2c_driver.c ****     
 337:drivers/Src/stm32f767xx_i2c_driver.c ****     if (Sr == I2C_DISABLE_SR)
 1165              		.loc 1 337 8
 1166 008e 3B7E     		ldrb	r3, [r7, #24]	@ zero_extendqisi2
 1167 0090 002B     		cmp	r3, #0
 1168 0092 04D1     		bne	.L55
 338:drivers/Src/stm32f767xx_i2c_driver.c ****     {
 339:drivers/Src/stm32f767xx_i2c_driver.c ****         // Generate STOP condition
 340:drivers/Src/stm32f767xx_i2c_driver.c ****         I2C_GenerateStopCondition(pI2CHandle->pI2Cx);
 1169              		.loc 1 340 9
 1170 0094 FB68     		ldr	r3, [r7, #12]
 1171 0096 1B68     		ldr	r3, [r3]
 1172 0098 1846     		mov	r0, r3
 1173 009a FFF7FEFF 		bl	I2C_GenerateStopCondition
 1174              	.L55:
 341:drivers/Src/stm32f767xx_i2c_driver.c ****     }
 342:drivers/Src/stm32f767xx_i2c_driver.c ****     
 343:drivers/Src/stm32f767xx_i2c_driver.c **** 
 344:drivers/Src/stm32f767xx_i2c_driver.c ****     // clear STOPF flag in I2C_ICR and clear the I2C_CR2 register:
 345:drivers/Src/stm32f767xx_i2c_driver.c ****     pI2CHandle->pI2Cx->ICR |= (1 << I2C_ICR_STOPCF);
 1175              		.loc 1 345 15
 1176 009e FB68     		ldr	r3, [r7, #12]
 1177 00a0 1B68     		ldr	r3, [r3]
 1178              		.loc 1 345 28
 1179 00a2 DA69     		ldr	r2, [r3, #28]
 1180              		.loc 1 345 15
 1181 00a4 FB68     		ldr	r3, [r7, #12]
 1182 00a6 1B68     		ldr	r3, [r3]
 1183              		.loc 1 345 28
 1184 00a8 42F02002 		orr	r2, r2, #32
 1185 00ac DA61     		str	r2, [r3, #28]
 346:drivers/Src/stm32f767xx_i2c_driver.c ****     pI2CHandle->pI2Cx->CR2 = 0x0;
 1186              		.loc 1 346 15
 1187 00ae FB68     		ldr	r3, [r7, #12]
 1188 00b0 1B68     		ldr	r3, [r3]
 1189              		.loc 1 346 28
 1190 00b2 0022     		movs	r2, #0
 1191 00b4 5A60     		str	r2, [r3, #4]
 347:drivers/Src/stm32f767xx_i2c_driver.c **** }
 1192              		.loc 1 347 1
ARM GAS  /var/folders/0z/tsy30v1j4xl4_7kw94k978ww0000gn/T//cc82wOJ3.s 			page 28


 1193 00b6 00BF     		nop
 1194 00b8 1037     		adds	r7, r7, #16
 1195              		.cfi_def_cfa_offset 8
 1196 00ba BD46     		mov	sp, r7
 1197              		.cfi_def_cfa_register 13
 1198              		@ sp needed
 1199 00bc 80BD     		pop	{r7, pc}
 1200              		.cfi_endproc
 1201              	.LFE12:
 1203              		.section	.text.I2C_MasterReceiveData,"ax",%progbits
 1204              		.align	1
 1205              		.global	I2C_MasterReceiveData
 1206              		.syntax unified
 1207              		.thumb
 1208              		.thumb_func
 1210              	I2C_MasterReceiveData:
 1211              	.LFB13:
 348:drivers/Src/stm32f767xx_i2c_driver.c **** 
 349:drivers/Src/stm32f767xx_i2c_driver.c **** /**
 350:drivers/Src/stm32f767xx_i2c_driver.c ****  * @brief I2C Master Mode Receive Data
 351:drivers/Src/stm32f767xx_i2c_driver.c ****  * 
 352:drivers/Src/stm32f767xx_i2c_driver.c ****  * @param pI2CHandle I2C handle
 353:drivers/Src/stm32f767xx_i2c_driver.c ****  * @param pRxBuffer buffer
 354:drivers/Src/stm32f767xx_i2c_driver.c ****  * @param Len length
 355:drivers/Src/stm32f767xx_i2c_driver.c ****  * @param SlaveAddr slave address
 356:drivers/Src/stm32f767xx_i2c_driver.c ****  */ 
 357:drivers/Src/stm32f767xx_i2c_driver.c **** void I2C_MasterReceiveData(I2C_Handle_t *pI2CHandle, uint8_t *pRxBuffer, uint8_t Len, uint8_t Slave
 358:drivers/Src/stm32f767xx_i2c_driver.c **** {
 1212              		.loc 1 358 1
 1213              		.cfi_startproc
 1214              		@ args = 4, pretend = 0, frame = 16
 1215              		@ frame_needed = 1, uses_anonymous_args = 0
 1216 0000 80B5     		push	{r7, lr}
 1217              		.cfi_def_cfa_offset 8
 1218              		.cfi_offset 7, -8
 1219              		.cfi_offset 14, -4
 1220 0002 84B0     		sub	sp, sp, #16
 1221              		.cfi_def_cfa_offset 24
 1222 0004 00AF     		add	r7, sp, #0
 1223              		.cfi_def_cfa_register 7
 1224 0006 F860     		str	r0, [r7, #12]
 1225 0008 B960     		str	r1, [r7, #8]
 1226 000a 1146     		mov	r1, r2
 1227 000c 1A46     		mov	r2, r3
 1228 000e 0B46     		mov	r3, r1
 1229 0010 FB71     		strb	r3, [r7, #7]
 1230 0012 1346     		mov	r3, r2
 1231 0014 BB71     		strb	r3, [r7, #6]
 359:drivers/Src/stm32f767xx_i2c_driver.c ****     // Send the address of the slave with r/nw bit set to r(1) (total 8 bits )
 360:drivers/Src/stm32f767xx_i2c_driver.c **** 	I2C_ExecuteAddressPhaseRead(pI2CHandle->pI2Cx,SlaveAddr);
 1232              		.loc 1 360 2
 1233 0016 FB68     		ldr	r3, [r7, #12]
 1234 0018 1B68     		ldr	r3, [r3]
 1235 001a BA79     		ldrb	r2, [r7, #6]	@ zero_extendqisi2
 1236 001c 1146     		mov	r1, r2
 1237 001e 1846     		mov	r0, r3
 1238 0020 FFF7FEFF 		bl	I2C_ExecuteAddressPhaseRead
ARM GAS  /var/folders/0z/tsy30v1j4xl4_7kw94k978ww0000gn/T//cc82wOJ3.s 			page 29


 361:drivers/Src/stm32f767xx_i2c_driver.c **** 
 362:drivers/Src/stm32f767xx_i2c_driver.c ****     // Set autoend to 0, and length of data to be received
 363:drivers/Src/stm32f767xx_i2c_driver.c ****     pI2CHandle->pI2Cx->CR2 &= ~(1 << I2C_CR2_AUTOEND);  //software end mode: TC flag is set when NB
 1239              		.loc 1 363 15
 1240 0024 FB68     		ldr	r3, [r7, #12]
 1241 0026 1B68     		ldr	r3, [r3]
 1242              		.loc 1 363 28
 1243 0028 5A68     		ldr	r2, [r3, #4]
 1244              		.loc 1 363 15
 1245 002a FB68     		ldr	r3, [r7, #12]
 1246 002c 1B68     		ldr	r3, [r3]
 1247              		.loc 1 363 28
 1248 002e 22F00072 		bic	r2, r2, #33554432
 1249 0032 5A60     		str	r2, [r3, #4]
 364:drivers/Src/stm32f767xx_i2c_driver.c ****     pI2CHandle->pI2Cx->CR2 |= (Len << I2C_CR2_NBYTES);  //number of bytes to be received
 1250              		.loc 1 364 15
 1251 0034 FB68     		ldr	r3, [r7, #12]
 1252 0036 1B68     		ldr	r3, [r3]
 1253              		.loc 1 364 28
 1254 0038 5A68     		ldr	r2, [r3, #4]
 1255              		.loc 1 364 36
 1256 003a FB79     		ldrb	r3, [r7, #7]	@ zero_extendqisi2
 1257 003c 1B04     		lsls	r3, r3, #16
 1258 003e 1946     		mov	r1, r3
 1259              		.loc 1 364 15
 1260 0040 FB68     		ldr	r3, [r7, #12]
 1261 0042 1B68     		ldr	r3, [r3]
 1262              		.loc 1 364 28
 1263 0044 0A43     		orrs	r2, r2, r1
 1264 0046 5A60     		str	r2, [r3, #4]
 365:drivers/Src/stm32f767xx_i2c_driver.c **** 
 366:drivers/Src/stm32f767xx_i2c_driver.c ****     // Generate the START condition
 367:drivers/Src/stm32f767xx_i2c_driver.c ****     I2C_GenerateStartCondition(pI2CHandle->pI2Cx);
 1265              		.loc 1 367 5
 1266 0048 FB68     		ldr	r3, [r7, #12]
 1267 004a 1B68     		ldr	r3, [r3]
 1268 004c 1846     		mov	r0, r3
 1269 004e FFF7FEFF 		bl	I2C_GenerateStartCondition
 368:drivers/Src/stm32f767xx_i2c_driver.c **** 
 369:drivers/Src/stm32f767xx_i2c_driver.c ****     // Receive the data until Len becomes 0
 370:drivers/Src/stm32f767xx_i2c_driver.c ****     while(Len > 0)
 1270              		.loc 1 370 10
 1271 0052 15E0     		b	.L57
 1272              	.L59:
 371:drivers/Src/stm32f767xx_i2c_driver.c **** 	{   
 372:drivers/Src/stm32f767xx_i2c_driver.c **** 		while(! I2C_GetFlagStatus(pI2CHandle->pI2Cx,I2C_FLAG_RXNE) ); //Wait till RXNE is set
 1273              		.loc 1 372 8
 1274 0054 00BF     		nop
 1275              	.L58:
 1276              		.loc 1 372 11 discriminator 1
 1277 0056 FB68     		ldr	r3, [r7, #12]
 1278 0058 1B68     		ldr	r3, [r3]
 1279 005a 0421     		movs	r1, #4
 1280 005c 1846     		mov	r0, r3
 1281 005e FFF7FEFF 		bl	I2C_GetFlagStatus
 1282 0062 0346     		mov	r3, r0
 1283              		.loc 1 372 9 discriminator 1
ARM GAS  /var/folders/0z/tsy30v1j4xl4_7kw94k978ww0000gn/T//cc82wOJ3.s 			page 30


 1284 0064 002B     		cmp	r3, #0
 1285 0066 F6D0     		beq	.L58
 373:drivers/Src/stm32f767xx_i2c_driver.c **** 		*pRxBuffer = pI2CHandle->pI2Cx->RXDR; // read data into buffer
 1286              		.loc 1 373 26
 1287 0068 FB68     		ldr	r3, [r7, #12]
 1288 006a 1B68     		ldr	r3, [r3]
 1289              		.loc 1 373 33
 1290 006c 5B6A     		ldr	r3, [r3, #36]
 1291              		.loc 1 373 14
 1292 006e DAB2     		uxtb	r2, r3
 1293 0070 BB68     		ldr	r3, [r7, #8]
 1294 0072 1A70     		strb	r2, [r3]
 374:drivers/Src/stm32f767xx_i2c_driver.c **** 		pRxBuffer++;
 1295              		.loc 1 374 12
 1296 0074 BB68     		ldr	r3, [r7, #8]
 1297 0076 0133     		adds	r3, r3, #1
 1298 0078 BB60     		str	r3, [r7, #8]
 375:drivers/Src/stm32f767xx_i2c_driver.c **** 		Len--;
 1299              		.loc 1 375 6
 1300 007a FB79     		ldrb	r3, [r7, #7]	@ zero_extendqisi2
 1301 007c 013B     		subs	r3, r3, #1
 1302 007e FB71     		strb	r3, [r7, #7]
 1303              	.L57:
 370:drivers/Src/stm32f767xx_i2c_driver.c **** 	{   
 1304              		.loc 1 370 15
 1305 0080 FB79     		ldrb	r3, [r7, #7]	@ zero_extendqisi2
 1306 0082 002B     		cmp	r3, #0
 1307 0084 E6D1     		bne	.L59
 376:drivers/Src/stm32f767xx_i2c_driver.c **** 	}
 377:drivers/Src/stm32f767xx_i2c_driver.c **** 
 378:drivers/Src/stm32f767xx_i2c_driver.c ****     // wait until TC flag is set (when NBYTES data are transferred)
 379:drivers/Src/stm32f767xx_i2c_driver.c ****     while(!(I2C_GetFlagStatus(pI2CHandle->pI2Cx,I2C_FLAG_TC)));
 1308              		.loc 1 379 10
 1309 0086 00BF     		nop
 1310              	.L60:
 1311              		.loc 1 379 13 discriminator 1
 1312 0088 FB68     		ldr	r3, [r7, #12]
 1313 008a 1B68     		ldr	r3, [r3]
 1314 008c 4021     		movs	r1, #64
 1315 008e 1846     		mov	r0, r3
 1316 0090 FFF7FEFF 		bl	I2C_GetFlagStatus
 1317 0094 0346     		mov	r3, r0
 1318              		.loc 1 379 11 discriminator 1
 1319 0096 002B     		cmp	r3, #0
 1320 0098 F6D0     		beq	.L60
 380:drivers/Src/stm32f767xx_i2c_driver.c ****     
 381:drivers/Src/stm32f767xx_i2c_driver.c ****     if (Sr == I2C_DISABLE_SR)
 1321              		.loc 1 381 8
 1322 009a 3B7E     		ldrb	r3, [r7, #24]	@ zero_extendqisi2
 1323 009c 002B     		cmp	r3, #0
 1324 009e 04D1     		bne	.L61
 382:drivers/Src/stm32f767xx_i2c_driver.c ****     {
 383:drivers/Src/stm32f767xx_i2c_driver.c ****         // Generate STOP condition
 384:drivers/Src/stm32f767xx_i2c_driver.c ****         I2C_GenerateStopCondition(pI2CHandle->pI2Cx);
 1325              		.loc 1 384 9
 1326 00a0 FB68     		ldr	r3, [r7, #12]
 1327 00a2 1B68     		ldr	r3, [r3]
ARM GAS  /var/folders/0z/tsy30v1j4xl4_7kw94k978ww0000gn/T//cc82wOJ3.s 			page 31


 1328 00a4 1846     		mov	r0, r3
 1329 00a6 FFF7FEFF 		bl	I2C_GenerateStopCondition
 1330              	.L61:
 385:drivers/Src/stm32f767xx_i2c_driver.c ****     }
 386:drivers/Src/stm32f767xx_i2c_driver.c **** 
 387:drivers/Src/stm32f767xx_i2c_driver.c **** 
 388:drivers/Src/stm32f767xx_i2c_driver.c ****     // clear STOPF flag in I2C_ICR and clear the I2C_CR2 register:
 389:drivers/Src/stm32f767xx_i2c_driver.c ****     pI2CHandle->pI2Cx->ICR |= (1 << I2C_ICR_STOPCF);
 1331              		.loc 1 389 15
 1332 00aa FB68     		ldr	r3, [r7, #12]
 1333 00ac 1B68     		ldr	r3, [r3]
 1334              		.loc 1 389 28
 1335 00ae DA69     		ldr	r2, [r3, #28]
 1336              		.loc 1 389 15
 1337 00b0 FB68     		ldr	r3, [r7, #12]
 1338 00b2 1B68     		ldr	r3, [r3]
 1339              		.loc 1 389 28
 1340 00b4 42F02002 		orr	r2, r2, #32
 1341 00b8 DA61     		str	r2, [r3, #28]
 390:drivers/Src/stm32f767xx_i2c_driver.c ****     pI2CHandle->pI2Cx->CR2 = 0x0;
 1342              		.loc 1 390 15
 1343 00ba FB68     		ldr	r3, [r7, #12]
 1344 00bc 1B68     		ldr	r3, [r3]
 1345              		.loc 1 390 28
 1346 00be 0022     		movs	r2, #0
 1347 00c0 5A60     		str	r2, [r3, #4]
 391:drivers/Src/stm32f767xx_i2c_driver.c **** }
 1348              		.loc 1 391 1
 1349 00c2 00BF     		nop
 1350 00c4 1037     		adds	r7, r7, #16
 1351              		.cfi_def_cfa_offset 8
 1352 00c6 BD46     		mov	sp, r7
 1353              		.cfi_def_cfa_register 13
 1354              		@ sp needed
 1355 00c8 80BD     		pop	{r7, pc}
 1356              		.cfi_endproc
 1357              	.LFE13:
 1359              		.section	.text.I2C_IRQInterruptConfig,"ax",%progbits
 1360              		.align	1
 1361              		.global	I2C_IRQInterruptConfig
 1362              		.syntax unified
 1363              		.thumb
 1364              		.thumb_func
 1366              	I2C_IRQInterruptConfig:
 1367              	.LFB14:
 392:drivers/Src/stm32f767xx_i2c_driver.c **** 
 393:drivers/Src/stm32f767xx_i2c_driver.c **** 
 394:drivers/Src/stm32f767xx_i2c_driver.c **** /**
 395:drivers/Src/stm32f767xx_i2c_driver.c ****  * @brief I2C IRQ Interrupt Enable or Disable
 396:drivers/Src/stm32f767xx_i2c_driver.c ****  * 
 397:drivers/Src/stm32f767xx_i2c_driver.c ****  * @param IRQNumber 
 398:drivers/Src/stm32f767xx_i2c_driver.c ****  * @param EnorDi 
 399:drivers/Src/stm32f767xx_i2c_driver.c ****  */
 400:drivers/Src/stm32f767xx_i2c_driver.c **** void I2C_IRQInterruptConfig(uint8_t IRQNumber, uint8_t EnorDi)
 401:drivers/Src/stm32f767xx_i2c_driver.c **** {
 1368              		.loc 1 401 1
 1369              		.cfi_startproc
ARM GAS  /var/folders/0z/tsy30v1j4xl4_7kw94k978ww0000gn/T//cc82wOJ3.s 			page 32


 1370              		@ args = 0, pretend = 0, frame = 8
 1371              		@ frame_needed = 1, uses_anonymous_args = 0
 1372              		@ link register save eliminated.
 1373 0000 80B4     		push	{r7}
 1374              		.cfi_def_cfa_offset 4
 1375              		.cfi_offset 7, -4
 1376 0002 83B0     		sub	sp, sp, #12
 1377              		.cfi_def_cfa_offset 16
 1378 0004 00AF     		add	r7, sp, #0
 1379              		.cfi_def_cfa_register 7
 1380 0006 0346     		mov	r3, r0
 1381 0008 0A46     		mov	r2, r1
 1382 000a FB71     		strb	r3, [r7, #7]
 1383 000c 1346     		mov	r3, r2
 1384 000e BB71     		strb	r3, [r7, #6]
 402:drivers/Src/stm32f767xx_i2c_driver.c **** if(EnorDi == ENABLE)
 1385              		.loc 1 402 3
 1386 0010 BB79     		ldrb	r3, [r7, #6]	@ zero_extendqisi2
 1387 0012 012B     		cmp	r3, #1
 1388 0014 4ED1     		bne	.L63
 403:drivers/Src/stm32f767xx_i2c_driver.c **** 	{
 404:drivers/Src/stm32f767xx_i2c_driver.c **** 		if(IRQNumber <= 31)							// 0 to 31
 1389              		.loc 1 404 5
 1390 0016 FB79     		ldrb	r3, [r7, #7]	@ zero_extendqisi2
 1391 0018 1F2B     		cmp	r3, #31
 1392 001a 0AD8     		bhi	.L64
 405:drivers/Src/stm32f767xx_i2c_driver.c **** 		{
 406:drivers/Src/stm32f767xx_i2c_driver.c **** 			//program ISER0 register
 407:drivers/Src/stm32f767xx_i2c_driver.c **** 			*NVIC_ISER0 |= (1 << IRQNumber);
 1393              		.loc 1 407 16
 1394 001c 504B     		ldr	r3, .L73
 1395 001e 1B68     		ldr	r3, [r3]
 1396              		.loc 1 407 22
 1397 0020 FA79     		ldrb	r2, [r7, #7]	@ zero_extendqisi2
 1398 0022 0121     		movs	r1, #1
 1399 0024 01FA02F2 		lsl	r2, r1, r2
 1400 0028 1146     		mov	r1, r2
 1401              		.loc 1 407 16
 1402 002a 4D4A     		ldr	r2, .L73
 1403 002c 0B43     		orrs	r3, r3, r1
 1404 002e 1360     		str	r3, [r2]
 408:drivers/Src/stm32f767xx_i2c_driver.c **** 
 409:drivers/Src/stm32f767xx_i2c_driver.c **** 		}else if (IRQNumber > 31 && IRQNumber < 64) // 32 to 63
 410:drivers/Src/stm32f767xx_i2c_driver.c **** 		{
 411:drivers/Src/stm32f767xx_i2c_driver.c **** 			//program ISER1 register
 412:drivers/Src/stm32f767xx_i2c_driver.c **** 			*NVIC_ISER1 |= (1 << (IRQNumber % 32));
 413:drivers/Src/stm32f767xx_i2c_driver.c **** 
 414:drivers/Src/stm32f767xx_i2c_driver.c **** 		}else if (IRQNumber >= 64 && IRQNumber < 96) // 64 to 95
 415:drivers/Src/stm32f767xx_i2c_driver.c **** 		{
 416:drivers/Src/stm32f767xx_i2c_driver.c **** 			//program ISER2 register
 417:drivers/Src/stm32f767xx_i2c_driver.c **** 			*NVIC_ISER2 |= (1 << (IRQNumber % 64));
 418:drivers/Src/stm32f767xx_i2c_driver.c **** 			
 419:drivers/Src/stm32f767xx_i2c_driver.c **** 		}else if (IRQNumber >= 96 && IRQNumber < 128) // 96 to 127 (max is 109 on F767)
 420:drivers/Src/stm32f767xx_i2c_driver.c **** 		{
 421:drivers/Src/stm32f767xx_i2c_driver.c **** 			//program ISER3 register
 422:drivers/Src/stm32f767xx_i2c_driver.c **** 			*NVIC_ISER3 |= (1 << (IRQNumber % 96));
 423:drivers/Src/stm32f767xx_i2c_driver.c **** 			
ARM GAS  /var/folders/0z/tsy30v1j4xl4_7kw94k978ww0000gn/T//cc82wOJ3.s 			page 33


 424:drivers/Src/stm32f767xx_i2c_driver.c **** 		}
 425:drivers/Src/stm32f767xx_i2c_driver.c **** 	}else
 426:drivers/Src/stm32f767xx_i2c_driver.c **** 	{
 427:drivers/Src/stm32f767xx_i2c_driver.c **** 		if(IRQNumber <= 31)
 428:drivers/Src/stm32f767xx_i2c_driver.c **** 		{
 429:drivers/Src/stm32f767xx_i2c_driver.c **** 			//program ICER0 register
 430:drivers/Src/stm32f767xx_i2c_driver.c **** 			*NVIC_ICER0 |= (1 << IRQNumber);
 431:drivers/Src/stm32f767xx_i2c_driver.c **** 			
 432:drivers/Src/stm32f767xx_i2c_driver.c **** 		}else if(IRQNumber > 31 && IRQNumber < 64 )
 433:drivers/Src/stm32f767xx_i2c_driver.c **** 		{
 434:drivers/Src/stm32f767xx_i2c_driver.c **** 			//program ICER1 register
 435:drivers/Src/stm32f767xx_i2c_driver.c **** 			*NVIC_ICER1 |= (1 << (IRQNumber % 32));
 436:drivers/Src/stm32f767xx_i2c_driver.c **** 			
 437:drivers/Src/stm32f767xx_i2c_driver.c **** 		}else if(IRQNumber >= 64 && IRQNumber < 96 )
 438:drivers/Src/stm32f767xx_i2c_driver.c **** 		{
 439:drivers/Src/stm32f767xx_i2c_driver.c **** 			//program ICER2 register
 440:drivers/Src/stm32f767xx_i2c_driver.c **** 			*NVIC_ICER2 |= (1 << (IRQNumber % 64));
 441:drivers/Src/stm32f767xx_i2c_driver.c **** 			
 442:drivers/Src/stm32f767xx_i2c_driver.c **** 		}else if (IRQNumber >= 96 && IRQNumber < 128)
 443:drivers/Src/stm32f767xx_i2c_driver.c **** 		{
 444:drivers/Src/stm32f767xx_i2c_driver.c **** 			//program ICER3 register
 445:drivers/Src/stm32f767xx_i2c_driver.c **** 			*NVIC_ICER3 |= (1 << (IRQNumber % 96));
 446:drivers/Src/stm32f767xx_i2c_driver.c **** 
 447:drivers/Src/stm32f767xx_i2c_driver.c **** 		}
 448:drivers/Src/stm32f767xx_i2c_driver.c **** 	}
 449:drivers/Src/stm32f767xx_i2c_driver.c **** }
 1405              		.loc 1 449 1
 1406 0030 8FE0     		b	.L72
 1407              	.L64:
 409:drivers/Src/stm32f767xx_i2c_driver.c **** 		{
 1408              		.loc 1 409 12
 1409 0032 FB79     		ldrb	r3, [r7, #7]	@ zero_extendqisi2
 1410 0034 1F2B     		cmp	r3, #31
 1411 0036 0FD9     		bls	.L66
 409:drivers/Src/stm32f767xx_i2c_driver.c **** 		{
 1412              		.loc 1 409 28 discriminator 1
 1413 0038 FB79     		ldrb	r3, [r7, #7]	@ zero_extendqisi2
 1414 003a 3F2B     		cmp	r3, #63
 1415 003c 0CD8     		bhi	.L66
 412:drivers/Src/stm32f767xx_i2c_driver.c **** 
 1416              		.loc 1 412 16
 1417 003e 494B     		ldr	r3, .L73+4
 1418 0040 1B68     		ldr	r3, [r3]
 412:drivers/Src/stm32f767xx_i2c_driver.c **** 
 1419              		.loc 1 412 36
 1420 0042 FA79     		ldrb	r2, [r7, #7]	@ zero_extendqisi2
 1421 0044 02F01F02 		and	r2, r2, #31
 412:drivers/Src/stm32f767xx_i2c_driver.c **** 
 1422              		.loc 1 412 22
 1423 0048 0121     		movs	r1, #1
 1424 004a 01FA02F2 		lsl	r2, r1, r2
 1425 004e 1146     		mov	r1, r2
 412:drivers/Src/stm32f767xx_i2c_driver.c **** 
 1426              		.loc 1 412 16
 1427 0050 444A     		ldr	r2, .L73+4
 1428 0052 0B43     		orrs	r3, r3, r1
 1429 0054 1360     		str	r3, [r2]
ARM GAS  /var/folders/0z/tsy30v1j4xl4_7kw94k978ww0000gn/T//cc82wOJ3.s 			page 34


 1430 0056 7CE0     		b	.L68
 1431              	.L66:
 414:drivers/Src/stm32f767xx_i2c_driver.c **** 		{
 1432              		.loc 1 414 12
 1433 0058 FB79     		ldrb	r3, [r7, #7]	@ zero_extendqisi2
 1434 005a 3F2B     		cmp	r3, #63
 1435 005c 0FD9     		bls	.L67
 414:drivers/Src/stm32f767xx_i2c_driver.c **** 		{
 1436              		.loc 1 414 29 discriminator 1
 1437 005e FB79     		ldrb	r3, [r7, #7]	@ zero_extendqisi2
 1438 0060 5F2B     		cmp	r3, #95
 1439 0062 0CD8     		bhi	.L67
 417:drivers/Src/stm32f767xx_i2c_driver.c **** 			
 1440              		.loc 1 417 16
 1441 0064 404B     		ldr	r3, .L73+8
 1442 0066 1B68     		ldr	r3, [r3]
 417:drivers/Src/stm32f767xx_i2c_driver.c **** 			
 1443              		.loc 1 417 36
 1444 0068 FA79     		ldrb	r2, [r7, #7]	@ zero_extendqisi2
 1445 006a 02F03F02 		and	r2, r2, #63
 417:drivers/Src/stm32f767xx_i2c_driver.c **** 			
 1446              		.loc 1 417 22
 1447 006e 0121     		movs	r1, #1
 1448 0070 01FA02F2 		lsl	r2, r1, r2
 1449 0074 1146     		mov	r1, r2
 417:drivers/Src/stm32f767xx_i2c_driver.c **** 			
 1450              		.loc 1 417 16
 1451 0076 3C4A     		ldr	r2, .L73+8
 1452 0078 0B43     		orrs	r3, r3, r1
 1453 007a 1360     		str	r3, [r2]
 1454 007c 69E0     		b	.L68
 1455              	.L67:
 419:drivers/Src/stm32f767xx_i2c_driver.c **** 		{
 1456              		.loc 1 419 12
 1457 007e FB79     		ldrb	r3, [r7, #7]	@ zero_extendqisi2
 1458 0080 5F2B     		cmp	r3, #95
 1459 0082 66D9     		bls	.L72
 419:drivers/Src/stm32f767xx_i2c_driver.c **** 		{
 1460              		.loc 1 419 42 discriminator 1
 1461 0084 97F90730 		ldrsb	r3, [r7, #7]
 419:drivers/Src/stm32f767xx_i2c_driver.c **** 		{
 1462              		.loc 1 419 29 discriminator 1
 1463 0088 002B     		cmp	r3, #0
 1464 008a 62DB     		blt	.L72
 422:drivers/Src/stm32f767xx_i2c_driver.c **** 			
 1465              		.loc 1 422 16
 1466 008c 374B     		ldr	r3, .L73+12
 1467 008e 1868     		ldr	r0, [r3]
 422:drivers/Src/stm32f767xx_i2c_driver.c **** 			
 1468              		.loc 1 422 36
 1469 0090 FA79     		ldrb	r2, [r7, #7]	@ zero_extendqisi2
 1470 0092 374B     		ldr	r3, .L73+16
 1471 0094 A3FB0213 		umull	r1, r3, r3, r2
 1472 0098 9909     		lsrs	r1, r3, #6
 1473 009a 0B46     		mov	r3, r1
 1474 009c 5B00     		lsls	r3, r3, #1
 1475 009e 0B44     		add	r3, r3, r1
ARM GAS  /var/folders/0z/tsy30v1j4xl4_7kw94k978ww0000gn/T//cc82wOJ3.s 			page 35


 1476 00a0 5B01     		lsls	r3, r3, #5
 1477 00a2 D31A     		subs	r3, r2, r3
 1478 00a4 DBB2     		uxtb	r3, r3
 1479 00a6 1A46     		mov	r2, r3
 422:drivers/Src/stm32f767xx_i2c_driver.c **** 			
 1480              		.loc 1 422 22
 1481 00a8 0123     		movs	r3, #1
 1482 00aa 9340     		lsls	r3, r3, r2
 422:drivers/Src/stm32f767xx_i2c_driver.c **** 			
 1483              		.loc 1 422 16
 1484 00ac 2F4A     		ldr	r2, .L73+12
 1485 00ae 0343     		orrs	r3, r3, r0
 1486 00b0 1360     		str	r3, [r2]
 1487              		.loc 1 449 1
 1488 00b2 4EE0     		b	.L72
 1489              	.L63:
 427:drivers/Src/stm32f767xx_i2c_driver.c **** 		{
 1490              		.loc 1 427 5
 1491 00b4 FB79     		ldrb	r3, [r7, #7]	@ zero_extendqisi2
 1492 00b6 1F2B     		cmp	r3, #31
 1493 00b8 0AD8     		bhi	.L69
 430:drivers/Src/stm32f767xx_i2c_driver.c **** 			
 1494              		.loc 1 430 16
 1495 00ba 2E4B     		ldr	r3, .L73+20
 1496 00bc 1B68     		ldr	r3, [r3]
 430:drivers/Src/stm32f767xx_i2c_driver.c **** 			
 1497              		.loc 1 430 22
 1498 00be FA79     		ldrb	r2, [r7, #7]	@ zero_extendqisi2
 1499 00c0 0121     		movs	r1, #1
 1500 00c2 01FA02F2 		lsl	r2, r1, r2
 1501 00c6 1146     		mov	r1, r2
 430:drivers/Src/stm32f767xx_i2c_driver.c **** 			
 1502              		.loc 1 430 16
 1503 00c8 2A4A     		ldr	r2, .L73+20
 1504 00ca 0B43     		orrs	r3, r3, r1
 1505 00cc 1360     		str	r3, [r2]
 1506              		.loc 1 449 1
 1507 00ce 40E0     		b	.L72
 1508              	.L69:
 432:drivers/Src/stm32f767xx_i2c_driver.c **** 		{
 1509              		.loc 1 432 11
 1510 00d0 FB79     		ldrb	r3, [r7, #7]	@ zero_extendqisi2
 1511 00d2 1F2B     		cmp	r3, #31
 1512 00d4 0FD9     		bls	.L70
 432:drivers/Src/stm32f767xx_i2c_driver.c **** 		{
 1513              		.loc 1 432 27 discriminator 1
 1514 00d6 FB79     		ldrb	r3, [r7, #7]	@ zero_extendqisi2
 1515 00d8 3F2B     		cmp	r3, #63
 1516 00da 0CD8     		bhi	.L70
 435:drivers/Src/stm32f767xx_i2c_driver.c **** 			
 1517              		.loc 1 435 16
 1518 00dc 264B     		ldr	r3, .L73+24
 1519 00de 1B68     		ldr	r3, [r3]
 435:drivers/Src/stm32f767xx_i2c_driver.c **** 			
 1520              		.loc 1 435 36
 1521 00e0 FA79     		ldrb	r2, [r7, #7]	@ zero_extendqisi2
 1522 00e2 02F01F02 		and	r2, r2, #31
ARM GAS  /var/folders/0z/tsy30v1j4xl4_7kw94k978ww0000gn/T//cc82wOJ3.s 			page 36


 435:drivers/Src/stm32f767xx_i2c_driver.c **** 			
 1523              		.loc 1 435 22
 1524 00e6 0121     		movs	r1, #1
 1525 00e8 01FA02F2 		lsl	r2, r1, r2
 1526 00ec 1146     		mov	r1, r2
 435:drivers/Src/stm32f767xx_i2c_driver.c **** 			
 1527              		.loc 1 435 16
 1528 00ee 224A     		ldr	r2, .L73+24
 1529 00f0 0B43     		orrs	r3, r3, r1
 1530 00f2 1360     		str	r3, [r2]
 1531 00f4 2DE0     		b	.L68
 1532              	.L70:
 437:drivers/Src/stm32f767xx_i2c_driver.c **** 		{
 1533              		.loc 1 437 11
 1534 00f6 FB79     		ldrb	r3, [r7, #7]	@ zero_extendqisi2
 1535 00f8 3F2B     		cmp	r3, #63
 1536 00fa 0FD9     		bls	.L71
 437:drivers/Src/stm32f767xx_i2c_driver.c **** 		{
 1537              		.loc 1 437 28 discriminator 1
 1538 00fc FB79     		ldrb	r3, [r7, #7]	@ zero_extendqisi2
 1539 00fe 5F2B     		cmp	r3, #95
 1540 0100 0CD8     		bhi	.L71
 440:drivers/Src/stm32f767xx_i2c_driver.c **** 			
 1541              		.loc 1 440 16
 1542 0102 1E4B     		ldr	r3, .L73+28
 1543 0104 1B68     		ldr	r3, [r3]
 440:drivers/Src/stm32f767xx_i2c_driver.c **** 			
 1544              		.loc 1 440 36
 1545 0106 FA79     		ldrb	r2, [r7, #7]	@ zero_extendqisi2
 1546 0108 02F03F02 		and	r2, r2, #63
 440:drivers/Src/stm32f767xx_i2c_driver.c **** 			
 1547              		.loc 1 440 22
 1548 010c 0121     		movs	r1, #1
 1549 010e 01FA02F2 		lsl	r2, r1, r2
 1550 0112 1146     		mov	r1, r2
 440:drivers/Src/stm32f767xx_i2c_driver.c **** 			
 1551              		.loc 1 440 16
 1552 0114 194A     		ldr	r2, .L73+28
 1553 0116 0B43     		orrs	r3, r3, r1
 1554 0118 1360     		str	r3, [r2]
 1555 011a 1AE0     		b	.L68
 1556              	.L71:
 442:drivers/Src/stm32f767xx_i2c_driver.c **** 		{
 1557              		.loc 1 442 12
 1558 011c FB79     		ldrb	r3, [r7, #7]	@ zero_extendqisi2
 1559 011e 5F2B     		cmp	r3, #95
 1560 0120 17D9     		bls	.L72
 442:drivers/Src/stm32f767xx_i2c_driver.c **** 		{
 1561              		.loc 1 442 42 discriminator 1
 1562 0122 97F90730 		ldrsb	r3, [r7, #7]
 442:drivers/Src/stm32f767xx_i2c_driver.c **** 		{
 1563              		.loc 1 442 29 discriminator 1
 1564 0126 002B     		cmp	r3, #0
 1565 0128 13DB     		blt	.L72
 445:drivers/Src/stm32f767xx_i2c_driver.c **** 
 1566              		.loc 1 445 16
 1567 012a 154B     		ldr	r3, .L73+32
ARM GAS  /var/folders/0z/tsy30v1j4xl4_7kw94k978ww0000gn/T//cc82wOJ3.s 			page 37


 1568 012c 1868     		ldr	r0, [r3]
 445:drivers/Src/stm32f767xx_i2c_driver.c **** 
 1569              		.loc 1 445 36
 1570 012e FA79     		ldrb	r2, [r7, #7]	@ zero_extendqisi2
 1571 0130 0F4B     		ldr	r3, .L73+16
 1572 0132 A3FB0213 		umull	r1, r3, r3, r2
 1573 0136 9909     		lsrs	r1, r3, #6
 1574 0138 0B46     		mov	r3, r1
 1575 013a 5B00     		lsls	r3, r3, #1
 1576 013c 0B44     		add	r3, r3, r1
 1577 013e 5B01     		lsls	r3, r3, #5
 1578 0140 D31A     		subs	r3, r2, r3
 1579 0142 DBB2     		uxtb	r3, r3
 1580 0144 1A46     		mov	r2, r3
 445:drivers/Src/stm32f767xx_i2c_driver.c **** 
 1581              		.loc 1 445 22
 1582 0146 0123     		movs	r3, #1
 1583 0148 9340     		lsls	r3, r3, r2
 445:drivers/Src/stm32f767xx_i2c_driver.c **** 
 1584              		.loc 1 445 16
 1585 014a 0D4A     		ldr	r2, .L73+32
 1586 014c 0343     		orrs	r3, r3, r0
 1587 014e 1360     		str	r3, [r2]
 1588              		.loc 1 449 1
 1589 0150 FFE7     		b	.L72
 1590              	.L68:
 1591              	.L72:
 1592 0152 00BF     		nop
 1593 0154 0C37     		adds	r7, r7, #12
 1594              		.cfi_def_cfa_offset 4
 1595 0156 BD46     		mov	sp, r7
 1596              		.cfi_def_cfa_register 13
 1597              		@ sp needed
 1598 0158 5DF8047B 		ldr	r7, [sp], #4
 1599              		.cfi_restore 7
 1600              		.cfi_def_cfa_offset 0
 1601 015c 7047     		bx	lr
 1602              	.L74:
 1603 015e 00BF     		.align	2
 1604              	.L73:
 1605 0160 00E100E0 		.word	-536813312
 1606 0164 04E100E0 		.word	-536813308
 1607 0168 08E100E0 		.word	-536813304
 1608 016c 0CE100E0 		.word	-536813300
 1609 0170 ABAAAAAA 		.word	-1431655765
 1610 0174 80E100E0 		.word	-536813184
 1611 0178 84E100E0 		.word	-536813180
 1612 017c 88E100E0 		.word	-536813176
 1613 0180 8CE100E0 		.word	-536813172
 1614              		.cfi_endproc
 1615              	.LFE14:
 1617              		.section	.text.I2C_IRQPriorityConfig,"ax",%progbits
 1618              		.align	1
 1619              		.global	I2C_IRQPriorityConfig
 1620              		.syntax unified
 1621              		.thumb
 1622              		.thumb_func
ARM GAS  /var/folders/0z/tsy30v1j4xl4_7kw94k978ww0000gn/T//cc82wOJ3.s 			page 38


 1624              	I2C_IRQPriorityConfig:
 1625              	.LFB15:
 450:drivers/Src/stm32f767xx_i2c_driver.c **** 
 451:drivers/Src/stm32f767xx_i2c_driver.c **** 
 452:drivers/Src/stm32f767xx_i2c_driver.c **** /**
 453:drivers/Src/stm32f767xx_i2c_driver.c ****  * @brief I2C IRQ Priority Configuration
 454:drivers/Src/stm32f767xx_i2c_driver.c ****  * 
 455:drivers/Src/stm32f767xx_i2c_driver.c ****  * @param IRQNumber 
 456:drivers/Src/stm32f767xx_i2c_driver.c ****  * @param IRQPriority 
 457:drivers/Src/stm32f767xx_i2c_driver.c ****  */
 458:drivers/Src/stm32f767xx_i2c_driver.c **** void I2C_IRQPriorityConfig(uint8_t IRQNumber, uint32_t IRQPriority)
 459:drivers/Src/stm32f767xx_i2c_driver.c **** {
 1626              		.loc 1 459 1
 1627              		.cfi_startproc
 1628              		@ args = 0, pretend = 0, frame = 16
 1629              		@ frame_needed = 1, uses_anonymous_args = 0
 1630              		@ link register save eliminated.
 1631 0000 80B4     		push	{r7}
 1632              		.cfi_def_cfa_offset 4
 1633              		.cfi_offset 7, -4
 1634 0002 85B0     		sub	sp, sp, #20
 1635              		.cfi_def_cfa_offset 24
 1636 0004 00AF     		add	r7, sp, #0
 1637              		.cfi_def_cfa_register 7
 1638 0006 0346     		mov	r3, r0
 1639 0008 3960     		str	r1, [r7]
 1640 000a FB71     		strb	r3, [r7, #7]
 460:drivers/Src/stm32f767xx_i2c_driver.c ****     	//1. first lets find out the ipr register
 461:drivers/Src/stm32f767xx_i2c_driver.c **** 	uint8_t iprx = IRQNumber / 4;
 1641              		.loc 1 461 10
 1642 000c FB79     		ldrb	r3, [r7, #7]	@ zero_extendqisi2
 1643 000e 9B08     		lsrs	r3, r3, #2
 1644 0010 FB73     		strb	r3, [r7, #15]
 462:drivers/Src/stm32f767xx_i2c_driver.c **** 	uint8_t iprx_section  = IRQNumber % 4;
 1645              		.loc 1 462 10
 1646 0012 FB79     		ldrb	r3, [r7, #7]
 1647 0014 03F00303 		and	r3, r3, #3
 1648 0018 BB73     		strb	r3, [r7, #14]
 463:drivers/Src/stm32f767xx_i2c_driver.c **** 	
 464:drivers/Src/stm32f767xx_i2c_driver.c **** 	// !! 16 programmable priority levels (4 bits of interrupt priority are used) Cf. RM 10.1
 465:drivers/Src/stm32f767xx_i2c_driver.c **** 	// only 4 MSBits are implemented!
 466:drivers/Src/stm32f767xx_i2c_driver.c **** 
 467:drivers/Src/stm32f767xx_i2c_driver.c **** 	uint8_t shift_amount = (8 * iprx_section) + (8 - NO_PR_BITS_IMPLEMENTED);
 1649              		.loc 1 467 44
 1650 001a BB7B     		ldrb	r3, [r7, #14]
 1651 001c DB00     		lsls	r3, r3, #3
 1652 001e DBB2     		uxtb	r3, r3
 1653              		.loc 1 467 10
 1654 0020 0433     		adds	r3, r3, #4
 1655 0022 7B73     		strb	r3, [r7, #13]
 468:drivers/Src/stm32f767xx_i2c_driver.c **** 	*(NVIC_PR_BASEADDR + iprx) |= (IRQPriority << shift_amount);
 1656              		.loc 1 468 29
 1657 0024 FB7B     		ldrb	r3, [r7, #15]	@ zero_extendqisi2
 1658 0026 9A00     		lsls	r2, r3, #2
 1659 0028 084B     		ldr	r3, .L76
 1660 002a 1344     		add	r3, r3, r2
 1661 002c 1968     		ldr	r1, [r3]
ARM GAS  /var/folders/0z/tsy30v1j4xl4_7kw94k978ww0000gn/T//cc82wOJ3.s 			page 39


 1662              		.loc 1 468 45
 1663 002e 7B7B     		ldrb	r3, [r7, #13]	@ zero_extendqisi2
 1664 0030 3A68     		ldr	r2, [r7]
 1665 0032 9A40     		lsls	r2, r2, r3
 1666              		.loc 1 468 29
 1667 0034 FB7B     		ldrb	r3, [r7, #15]	@ zero_extendqisi2
 1668 0036 9800     		lsls	r0, r3, #2
 1669 0038 044B     		ldr	r3, .L76
 1670 003a 0344     		add	r3, r3, r0
 1671 003c 0A43     		orrs	r2, r2, r1
 1672 003e 1A60     		str	r2, [r3]
 469:drivers/Src/stm32f767xx_i2c_driver.c **** }
 1673              		.loc 1 469 1
 1674 0040 00BF     		nop
 1675 0042 1437     		adds	r7, r7, #20
 1676              		.cfi_def_cfa_offset 4
 1677 0044 BD46     		mov	sp, r7
 1678              		.cfi_def_cfa_register 13
 1679              		@ sp needed
 1680 0046 5DF8047B 		ldr	r7, [sp], #4
 1681              		.cfi_restore 7
 1682              		.cfi_def_cfa_offset 0
 1683 004a 7047     		bx	lr
 1684              	.L77:
 1685              		.align	2
 1686              	.L76:
 1687 004c 00E400E0 		.word	-536812544
 1688              		.cfi_endproc
 1689              	.LFE15:
 1691              		.section	.text.I2C_SlaveSendData,"ax",%progbits
 1692              		.align	1
 1693              		.global	I2C_SlaveSendData
 1694              		.syntax unified
 1695              		.thumb
 1696              		.thumb_func
 1698              	I2C_SlaveSendData:
 1699              	.LFB16:
 470:drivers/Src/stm32f767xx_i2c_driver.c **** 
 471:drivers/Src/stm32f767xx_i2c_driver.c **** 
 472:drivers/Src/stm32f767xx_i2c_driver.c **** /**
 473:drivers/Src/stm32f767xx_i2c_driver.c ****  * @brief 
 474:drivers/Src/stm32f767xx_i2c_driver.c ****  * 
 475:drivers/Src/stm32f767xx_i2c_driver.c ****  * @param pI2Cx 
 476:drivers/Src/stm32f767xx_i2c_driver.c ****  * @param data 
 477:drivers/Src/stm32f767xx_i2c_driver.c ****  */
 478:drivers/Src/stm32f767xx_i2c_driver.c **** void I2C_SlaveSendData(I2C_RegDef_t *pI2Cx, uint8_t data)
 479:drivers/Src/stm32f767xx_i2c_driver.c **** {
 1700              		.loc 1 479 1
 1701              		.cfi_startproc
 1702              		@ args = 0, pretend = 0, frame = 8
 1703              		@ frame_needed = 1, uses_anonymous_args = 0
 1704              		@ link register save eliminated.
 1705 0000 80B4     		push	{r7}
 1706              		.cfi_def_cfa_offset 4
 1707              		.cfi_offset 7, -4
 1708 0002 83B0     		sub	sp, sp, #12
 1709              		.cfi_def_cfa_offset 16
ARM GAS  /var/folders/0z/tsy30v1j4xl4_7kw94k978ww0000gn/T//cc82wOJ3.s 			page 40


 1710 0004 00AF     		add	r7, sp, #0
 1711              		.cfi_def_cfa_register 7
 1712 0006 7860     		str	r0, [r7, #4]
 1713 0008 0B46     		mov	r3, r1
 1714 000a FB70     		strb	r3, [r7, #3]
 480:drivers/Src/stm32f767xx_i2c_driver.c ****     pI2Cx->TXDR = data;
 1715              		.loc 1 480 17
 1716 000c FA78     		ldrb	r2, [r7, #3]	@ zero_extendqisi2
 1717 000e 7B68     		ldr	r3, [r7, #4]
 1718 0010 9A62     		str	r2, [r3, #40]
 481:drivers/Src/stm32f767xx_i2c_driver.c **** }
 1719              		.loc 1 481 1
 1720 0012 00BF     		nop
 1721 0014 0C37     		adds	r7, r7, #12
 1722              		.cfi_def_cfa_offset 4
 1723 0016 BD46     		mov	sp, r7
 1724              		.cfi_def_cfa_register 13
 1725              		@ sp needed
 1726 0018 5DF8047B 		ldr	r7, [sp], #4
 1727              		.cfi_restore 7
 1728              		.cfi_def_cfa_offset 0
 1729 001c 7047     		bx	lr
 1730              		.cfi_endproc
 1731              	.LFE16:
 1733              		.section	.text.I2C_SlaveReceiveData,"ax",%progbits
 1734              		.align	1
 1735              		.global	I2C_SlaveReceiveData
 1736              		.syntax unified
 1737              		.thumb
 1738              		.thumb_func
 1740              	I2C_SlaveReceiveData:
 1741              	.LFB17:
 482:drivers/Src/stm32f767xx_i2c_driver.c **** 
 483:drivers/Src/stm32f767xx_i2c_driver.c **** /**
 484:drivers/Src/stm32f767xx_i2c_driver.c ****  * @brief 
 485:drivers/Src/stm32f767xx_i2c_driver.c ****  * 
 486:drivers/Src/stm32f767xx_i2c_driver.c ****  * @param pI2Cx 
 487:drivers/Src/stm32f767xx_i2c_driver.c ****  * @return uint8_t 
 488:drivers/Src/stm32f767xx_i2c_driver.c ****  */
 489:drivers/Src/stm32f767xx_i2c_driver.c **** uint8_t I2C_SlaveReceiveData(I2C_RegDef_t *pI2Cx)
 490:drivers/Src/stm32f767xx_i2c_driver.c **** {
 1742              		.loc 1 490 1
 1743              		.cfi_startproc
 1744              		@ args = 0, pretend = 0, frame = 8
 1745              		@ frame_needed = 1, uses_anonymous_args = 0
 1746              		@ link register save eliminated.
 1747 0000 80B4     		push	{r7}
 1748              		.cfi_def_cfa_offset 4
 1749              		.cfi_offset 7, -4
 1750 0002 83B0     		sub	sp, sp, #12
 1751              		.cfi_def_cfa_offset 16
 1752 0004 00AF     		add	r7, sp, #0
 1753              		.cfi_def_cfa_register 7
 1754 0006 7860     		str	r0, [r7, #4]
 491:drivers/Src/stm32f767xx_i2c_driver.c ****     return (uint8_t)pI2Cx->RXDR;
 1755              		.loc 1 491 26
 1756 0008 7B68     		ldr	r3, [r7, #4]
ARM GAS  /var/folders/0z/tsy30v1j4xl4_7kw94k978ww0000gn/T//cc82wOJ3.s 			page 41


 1757 000a 5B6A     		ldr	r3, [r3, #36]
 1758              		.loc 1 491 12
 1759 000c DBB2     		uxtb	r3, r3
 492:drivers/Src/stm32f767xx_i2c_driver.c **** }
 1760              		.loc 1 492 1
 1761 000e 1846     		mov	r0, r3
 1762 0010 0C37     		adds	r7, r7, #12
 1763              		.cfi_def_cfa_offset 4
 1764 0012 BD46     		mov	sp, r7
 1765              		.cfi_def_cfa_register 13
 1766              		@ sp needed
 1767 0014 5DF8047B 		ldr	r7, [sp], #4
 1768              		.cfi_restore 7
 1769              		.cfi_def_cfa_offset 0
 1770 0018 7047     		bx	lr
 1771              		.cfi_endproc
 1772              	.LFE17:
 1774              		.section	.text.I2C_MasterSendDataIT,"ax",%progbits
 1775              		.align	1
 1776              		.global	I2C_MasterSendDataIT
 1777              		.syntax unified
 1778              		.thumb
 1779              		.thumb_func
 1781              	I2C_MasterSendDataIT:
 1782              	.LFB18:
 493:drivers/Src/stm32f767xx_i2c_driver.c **** 
 494:drivers/Src/stm32f767xx_i2c_driver.c **** /**
 495:drivers/Src/stm32f767xx_i2c_driver.c ****  * @brief I2C Interrupt based Master Mode Send Data
 496:drivers/Src/stm32f767xx_i2c_driver.c ****  * 
 497:drivers/Src/stm32f767xx_i2c_driver.c ****  * @param pI2CHandle 
 498:drivers/Src/stm32f767xx_i2c_driver.c ****  * @param pTxbuffer 
 499:drivers/Src/stm32f767xx_i2c_driver.c ****  * @param Len 
 500:drivers/Src/stm32f767xx_i2c_driver.c ****  * @param SlaveAddr 
 501:drivers/Src/stm32f767xx_i2c_driver.c ****  * @param Sr 
 502:drivers/Src/stm32f767xx_i2c_driver.c ****  * @return uint8_t
 503:drivers/Src/stm32f767xx_i2c_driver.c ****  */
 504:drivers/Src/stm32f767xx_i2c_driver.c **** uint8_t I2C_MasterSendDataIT(I2C_Handle_t *pI2CHandle,uint8_t *pTxBuffer, uint32_t Len, uint8_t Sla
 505:drivers/Src/stm32f767xx_i2c_driver.c **** {
 1783              		.loc 1 505 1
 1784              		.cfi_startproc
 1785              		@ args = 4, pretend = 0, frame = 24
 1786              		@ frame_needed = 1, uses_anonymous_args = 0
 1787 0000 80B5     		push	{r7, lr}
 1788              		.cfi_def_cfa_offset 8
 1789              		.cfi_offset 7, -8
 1790              		.cfi_offset 14, -4
 1791 0002 86B0     		sub	sp, sp, #24
 1792              		.cfi_def_cfa_offset 32
 1793 0004 00AF     		add	r7, sp, #0
 1794              		.cfi_def_cfa_register 7
 1795 0006 F860     		str	r0, [r7, #12]
 1796 0008 B960     		str	r1, [r7, #8]
 1797 000a 7A60     		str	r2, [r7, #4]
 1798 000c FB70     		strb	r3, [r7, #3]
 506:drivers/Src/stm32f767xx_i2c_driver.c ****     uint8_t busystate = pI2CHandle->TxRxState;
 1799              		.loc 1 506 13
 1800 000e FB68     		ldr	r3, [r7, #12]
ARM GAS  /var/folders/0z/tsy30v1j4xl4_7kw94k978ww0000gn/T//cc82wOJ3.s 			page 42


 1801 0010 1B7F     		ldrb	r3, [r3, #28]
 1802 0012 FB75     		strb	r3, [r7, #23]
 507:drivers/Src/stm32f767xx_i2c_driver.c **** 
 508:drivers/Src/stm32f767xx_i2c_driver.c **** 	if( (busystate != I2C_BUSY_IN_TX) && (busystate != I2C_BUSY_IN_RX))
 1803              		.loc 1 508 4
 1804 0014 FB7D     		ldrb	r3, [r7, #23]	@ zero_extendqisi2
 1805 0016 022B     		cmp	r3, #2
 1806 0018 55D0     		beq	.L82
 1807              		.loc 1 508 36 discriminator 1
 1808 001a FB7D     		ldrb	r3, [r7, #23]	@ zero_extendqisi2
 1809 001c 012B     		cmp	r3, #1
 1810 001e 52D0     		beq	.L82
 509:drivers/Src/stm32f767xx_i2c_driver.c **** 	{
 510:drivers/Src/stm32f767xx_i2c_driver.c **** 		pI2CHandle->pTxBuffer = pTxBuffer;
 1811              		.loc 1 510 25
 1812 0020 FB68     		ldr	r3, [r7, #12]
 1813 0022 BA68     		ldr	r2, [r7, #8]
 1814 0024 DA60     		str	r2, [r3, #12]
 511:drivers/Src/stm32f767xx_i2c_driver.c **** 		pI2CHandle->TxLen = Len;
 1815              		.loc 1 511 21
 1816 0026 FB68     		ldr	r3, [r7, #12]
 1817 0028 7A68     		ldr	r2, [r7, #4]
 1818 002a 5A61     		str	r2, [r3, #20]
 512:drivers/Src/stm32f767xx_i2c_driver.c **** 		pI2CHandle->TxRxState = I2C_BUSY_IN_TX;
 1819              		.loc 1 512 25
 1820 002c FB68     		ldr	r3, [r7, #12]
 1821 002e 0222     		movs	r2, #2
 1822 0030 1A77     		strb	r2, [r3, #28]
 513:drivers/Src/stm32f767xx_i2c_driver.c **** 		pI2CHandle->DevAddr = SlaveAddr;
 1823              		.loc 1 513 23
 1824 0032 FB68     		ldr	r3, [r7, #12]
 1825 0034 FA78     		ldrb	r2, [r7, #3]
 1826 0036 5A77     		strb	r2, [r3, #29]
 514:drivers/Src/stm32f767xx_i2c_driver.c ****         pI2CHandle->Mode = I2C_MODE_MASTER;
 1827              		.loc 1 514 26
 1828 0038 FB68     		ldr	r3, [r7, #12]
 1829 003a 0122     		movs	r2, #1
 1830 003c 9A77     		strb	r2, [r3, #30]
 515:drivers/Src/stm32f767xx_i2c_driver.c ****         pI2CHandle->Sr = Sr;
 1831              		.loc 1 515 24
 1832 003e FB68     		ldr	r3, [r7, #12]
 1833 0040 97F82020 		ldrb	r2, [r7, #32]
 1834 0044 83F82420 		strb	r2, [r3, #36]
 516:drivers/Src/stm32f767xx_i2c_driver.c **** 
 517:drivers/Src/stm32f767xx_i2c_driver.c ****         // Send the address of the slave with r/nw bit set to w(0) (total 8 bits )
 518:drivers/Src/stm32f767xx_i2c_driver.c **** 	    I2C_ExecuteAddressPhaseWrite(pI2CHandle->pI2Cx,pI2CHandle->DevAddr);
 1835              		.loc 1 518 6
 1836 0048 FB68     		ldr	r3, [r7, #12]
 1837 004a 1A68     		ldr	r2, [r3]
 1838 004c FB68     		ldr	r3, [r7, #12]
 1839 004e 5B7F     		ldrb	r3, [r3, #29]	@ zero_extendqisi2
 1840 0050 1946     		mov	r1, r3
 1841 0052 1046     		mov	r0, r2
 1842 0054 FFF7FEFF 		bl	I2C_ExecuteAddressPhaseWrite
 519:drivers/Src/stm32f767xx_i2c_driver.c **** 
 520:drivers/Src/stm32f767xx_i2c_driver.c ****         // Set autoend to 0, and length of data to be transmitted
 521:drivers/Src/stm32f767xx_i2c_driver.c ****         pI2CHandle->pI2Cx->CR2 &= ~(1 << I2C_CR2_AUTOEND);  //software end mode: TC flag is set whe
ARM GAS  /var/folders/0z/tsy30v1j4xl4_7kw94k978ww0000gn/T//cc82wOJ3.s 			page 43


 1843              		.loc 1 521 19
 1844 0058 FB68     		ldr	r3, [r7, #12]
 1845 005a 1B68     		ldr	r3, [r3]
 1846              		.loc 1 521 32
 1847 005c 5A68     		ldr	r2, [r3, #4]
 1848              		.loc 1 521 19
 1849 005e FB68     		ldr	r3, [r7, #12]
 1850 0060 1B68     		ldr	r3, [r3]
 1851              		.loc 1 521 32
 1852 0062 22F00072 		bic	r2, r2, #33554432
 1853 0066 5A60     		str	r2, [r3, #4]
 522:drivers/Src/stm32f767xx_i2c_driver.c ****         pI2CHandle->pI2Cx->CR2 |= (pI2CHandle->TxLen << I2C_CR2_NBYTES);  //number of bytes to be t
 1854              		.loc 1 522 19
 1855 0068 FB68     		ldr	r3, [r7, #12]
 1856 006a 1B68     		ldr	r3, [r3]
 1857              		.loc 1 522 32
 1858 006c 5968     		ldr	r1, [r3, #4]
 1859              		.loc 1 522 46
 1860 006e FB68     		ldr	r3, [r7, #12]
 1861 0070 5B69     		ldr	r3, [r3, #20]
 1862              		.loc 1 522 54
 1863 0072 1A04     		lsls	r2, r3, #16
 1864              		.loc 1 522 19
 1865 0074 FB68     		ldr	r3, [r7, #12]
 1866 0076 1B68     		ldr	r3, [r3]
 1867              		.loc 1 522 32
 1868 0078 0A43     		orrs	r2, r2, r1
 1869 007a 5A60     		str	r2, [r3, #4]
 523:drivers/Src/stm32f767xx_i2c_driver.c **** 
 524:drivers/Src/stm32f767xx_i2c_driver.c ****         //Generate START Condition
 525:drivers/Src/stm32f767xx_i2c_driver.c **** 		I2C_GenerateStartCondition(pI2CHandle->pI2Cx);
 1870              		.loc 1 525 3
 1871 007c FB68     		ldr	r3, [r7, #12]
 1872 007e 1B68     		ldr	r3, [r3]
 1873 0080 1846     		mov	r0, r3
 1874 0082 FFF7FEFF 		bl	I2C_GenerateStartCondition
 526:drivers/Src/stm32f767xx_i2c_driver.c **** 
 527:drivers/Src/stm32f767xx_i2c_driver.c ****         //enable TXIE, TCIE, STOPIE Control Bits
 528:drivers/Src/stm32f767xx_i2c_driver.c **** 		pI2CHandle->pI2Cx->CR1 |= ( 1 << I2C_CR1_TXIE);
 1875              		.loc 1 528 13
 1876 0086 FB68     		ldr	r3, [r7, #12]
 1877 0088 1B68     		ldr	r3, [r3]
 1878              		.loc 1 528 26
 1879 008a 1A68     		ldr	r2, [r3]
 1880              		.loc 1 528 13
 1881 008c FB68     		ldr	r3, [r7, #12]
 1882 008e 1B68     		ldr	r3, [r3]
 1883              		.loc 1 528 26
 1884 0090 42F00202 		orr	r2, r2, #2
 1885 0094 1A60     		str	r2, [r3]
 529:drivers/Src/stm32f767xx_i2c_driver.c ****         pI2CHandle->pI2Cx->CR1 |= ( 1 << I2C_CR1_TCIE);
 1886              		.loc 1 529 19
 1887 0096 FB68     		ldr	r3, [r7, #12]
 1888 0098 1B68     		ldr	r3, [r3]
 1889              		.loc 1 529 32
 1890 009a 1A68     		ldr	r2, [r3]
 1891              		.loc 1 529 19
ARM GAS  /var/folders/0z/tsy30v1j4xl4_7kw94k978ww0000gn/T//cc82wOJ3.s 			page 44


 1892 009c FB68     		ldr	r3, [r7, #12]
 1893 009e 1B68     		ldr	r3, [r3]
 1894              		.loc 1 529 32
 1895 00a0 42F04002 		orr	r2, r2, #64
 1896 00a4 1A60     		str	r2, [r3]
 530:drivers/Src/stm32f767xx_i2c_driver.c ****         pI2CHandle->pI2Cx->CR1 |= ( 1 << I2C_CR1_STOPIE);
 1897              		.loc 1 530 19
 1898 00a6 FB68     		ldr	r3, [r7, #12]
 1899 00a8 1B68     		ldr	r3, [r3]
 1900              		.loc 1 530 32
 1901 00aa 1A68     		ldr	r2, [r3]
 1902              		.loc 1 530 19
 1903 00ac FB68     		ldr	r3, [r7, #12]
 1904 00ae 1B68     		ldr	r3, [r3]
 1905              		.loc 1 530 32
 1906 00b0 42F02002 		orr	r2, r2, #32
 1907 00b4 1A60     		str	r2, [r3]
 531:drivers/Src/stm32f767xx_i2c_driver.c **** 
 532:drivers/Src/stm32f767xx_i2c_driver.c ****         //enable ERRIE Control Bit
 533:drivers/Src/stm32f767xx_i2c_driver.c **** 		pI2CHandle->pI2Cx->CR1 |= ( 1 << I2C_CR1_ERRIE);
 1908              		.loc 1 533 13
 1909 00b6 FB68     		ldr	r3, [r7, #12]
 1910 00b8 1B68     		ldr	r3, [r3]
 1911              		.loc 1 533 26
 1912 00ba 1A68     		ldr	r2, [r3]
 1913              		.loc 1 533 13
 1914 00bc FB68     		ldr	r3, [r7, #12]
 1915 00be 1B68     		ldr	r3, [r3]
 1916              		.loc 1 533 26
 1917 00c0 42F08002 		orr	r2, r2, #128
 1918 00c4 1A60     		str	r2, [r3]
 1919              	.L82:
 534:drivers/Src/stm32f767xx_i2c_driver.c **** 	}
 535:drivers/Src/stm32f767xx_i2c_driver.c **** 
 536:drivers/Src/stm32f767xx_i2c_driver.c **** 	return busystate;
 1920              		.loc 1 536 9
 1921 00c6 FB7D     		ldrb	r3, [r7, #23]	@ zero_extendqisi2
 537:drivers/Src/stm32f767xx_i2c_driver.c **** }
 1922              		.loc 1 537 1
 1923 00c8 1846     		mov	r0, r3
 1924 00ca 1837     		adds	r7, r7, #24
 1925              		.cfi_def_cfa_offset 8
 1926 00cc BD46     		mov	sp, r7
 1927              		.cfi_def_cfa_register 13
 1928              		@ sp needed
 1929 00ce 80BD     		pop	{r7, pc}
 1930              		.cfi_endproc
 1931              	.LFE18:
 1933              		.section	.text.I2C_MasterReceiveDataIT,"ax",%progbits
 1934              		.align	1
 1935              		.global	I2C_MasterReceiveDataIT
 1936              		.syntax unified
 1937              		.thumb
 1938              		.thumb_func
 1940              	I2C_MasterReceiveDataIT:
 1941              	.LFB19:
 538:drivers/Src/stm32f767xx_i2c_driver.c **** 
ARM GAS  /var/folders/0z/tsy30v1j4xl4_7kw94k978ww0000gn/T//cc82wOJ3.s 			page 45


 539:drivers/Src/stm32f767xx_i2c_driver.c **** 
 540:drivers/Src/stm32f767xx_i2c_driver.c **** 
 541:drivers/Src/stm32f767xx_i2c_driver.c **** 
 542:drivers/Src/stm32f767xx_i2c_driver.c **** /**
 543:drivers/Src/stm32f767xx_i2c_driver.c ****  * @brief I2C Interrupt based Master Mode Receive Data
 544:drivers/Src/stm32f767xx_i2c_driver.c ****  * 
 545:drivers/Src/stm32f767xx_i2c_driver.c ****  * @param pI2CHandle 
 546:drivers/Src/stm32f767xx_i2c_driver.c ****  * @param pRxBuffer 
 547:drivers/Src/stm32f767xx_i2c_driver.c ****  * @param Len 
 548:drivers/Src/stm32f767xx_i2c_driver.c ****  * @param SlaveAddr 
 549:drivers/Src/stm32f767xx_i2c_driver.c ****  * @param Sr 
 550:drivers/Src/stm32f767xx_i2c_driver.c ****  * @return uint8_t 
 551:drivers/Src/stm32f767xx_i2c_driver.c ****  */
 552:drivers/Src/stm32f767xx_i2c_driver.c **** uint8_t I2C_MasterReceiveDataIT(I2C_Handle_t *pI2CHandle, uint8_t *pRxBuffer, uint8_t Len, uint8_t 
 553:drivers/Src/stm32f767xx_i2c_driver.c **** {
 1942              		.loc 1 553 1
 1943              		.cfi_startproc
 1944              		@ args = 4, pretend = 0, frame = 24
 1945              		@ frame_needed = 1, uses_anonymous_args = 0
 1946 0000 80B5     		push	{r7, lr}
 1947              		.cfi_def_cfa_offset 8
 1948              		.cfi_offset 7, -8
 1949              		.cfi_offset 14, -4
 1950 0002 86B0     		sub	sp, sp, #24
 1951              		.cfi_def_cfa_offset 32
 1952 0004 00AF     		add	r7, sp, #0
 1953              		.cfi_def_cfa_register 7
 1954 0006 F860     		str	r0, [r7, #12]
 1955 0008 B960     		str	r1, [r7, #8]
 1956 000a 1146     		mov	r1, r2
 1957 000c 1A46     		mov	r2, r3
 1958 000e 0B46     		mov	r3, r1
 1959 0010 FB71     		strb	r3, [r7, #7]
 1960 0012 1346     		mov	r3, r2
 1961 0014 BB71     		strb	r3, [r7, #6]
 554:drivers/Src/stm32f767xx_i2c_driver.c ****         uint8_t busystate = pI2CHandle->TxRxState;
 1962              		.loc 1 554 17
 1963 0016 FB68     		ldr	r3, [r7, #12]
 1964 0018 1B7F     		ldrb	r3, [r3, #28]
 1965 001a FB75     		strb	r3, [r7, #23]
 555:drivers/Src/stm32f767xx_i2c_driver.c **** 
 556:drivers/Src/stm32f767xx_i2c_driver.c **** 	if( (busystate != I2C_BUSY_IN_TX) && (busystate != I2C_BUSY_IN_RX))
 1966              		.loc 1 556 4
 1967 001c FB7D     		ldrb	r3, [r7, #23]	@ zero_extendqisi2
 1968 001e 022B     		cmp	r3, #2
 1969 0020 58D0     		beq	.L85
 1970              		.loc 1 556 36 discriminator 1
 1971 0022 FB7D     		ldrb	r3, [r7, #23]	@ zero_extendqisi2
 1972 0024 012B     		cmp	r3, #1
 1973 0026 55D0     		beq	.L85
 557:drivers/Src/stm32f767xx_i2c_driver.c **** 	{
 558:drivers/Src/stm32f767xx_i2c_driver.c **** 		pI2CHandle->pRxBuffer = pRxBuffer;
 1974              		.loc 1 558 25
 1975 0028 FB68     		ldr	r3, [r7, #12]
 1976 002a BA68     		ldr	r2, [r7, #8]
 1977 002c 1A61     		str	r2, [r3, #16]
 559:drivers/Src/stm32f767xx_i2c_driver.c **** 		pI2CHandle->RxLen = Len;
ARM GAS  /var/folders/0z/tsy30v1j4xl4_7kw94k978ww0000gn/T//cc82wOJ3.s 			page 46


 1978              		.loc 1 559 21
 1979 002e FA79     		ldrb	r2, [r7, #7]	@ zero_extendqisi2
 1980 0030 FB68     		ldr	r3, [r7, #12]
 1981 0032 9A61     		str	r2, [r3, #24]
 560:drivers/Src/stm32f767xx_i2c_driver.c **** 		pI2CHandle->TxRxState = I2C_BUSY_IN_RX;
 1982              		.loc 1 560 25
 1983 0034 FB68     		ldr	r3, [r7, #12]
 1984 0036 0122     		movs	r2, #1
 1985 0038 1A77     		strb	r2, [r3, #28]
 561:drivers/Src/stm32f767xx_i2c_driver.c **** 		pI2CHandle->RxSize = Len;
 1986              		.loc 1 561 22
 1987 003a FA79     		ldrb	r2, [r7, #7]	@ zero_extendqisi2
 1988 003c FB68     		ldr	r3, [r7, #12]
 1989 003e 1A62     		str	r2, [r3, #32]
 562:drivers/Src/stm32f767xx_i2c_driver.c **** 		pI2CHandle->DevAddr = SlaveAddr;
 1990              		.loc 1 562 23
 1991 0040 FB68     		ldr	r3, [r7, #12]
 1992 0042 BA79     		ldrb	r2, [r7, #6]
 1993 0044 5A77     		strb	r2, [r3, #29]
 563:drivers/Src/stm32f767xx_i2c_driver.c ****         pI2CHandle->Mode = I2C_MODE_MASTER;
 1994              		.loc 1 563 26
 1995 0046 FB68     		ldr	r3, [r7, #12]
 1996 0048 0122     		movs	r2, #1
 1997 004a 9A77     		strb	r2, [r3, #30]
 564:drivers/Src/stm32f767xx_i2c_driver.c **** 		pI2CHandle->Sr = Sr;
 1998              		.loc 1 564 18
 1999 004c FB68     		ldr	r3, [r7, #12]
 2000 004e 97F82020 		ldrb	r2, [r7, #32]
 2001 0052 83F82420 		strb	r2, [r3, #36]
 565:drivers/Src/stm32f767xx_i2c_driver.c **** 
 566:drivers/Src/stm32f767xx_i2c_driver.c ****         // Send the address of the slave with r/nw bit set to r(1) (total 8 bits )
 567:drivers/Src/stm32f767xx_i2c_driver.c **** 	    I2C_ExecuteAddressPhaseRead(pI2CHandle->pI2Cx,pI2CHandle->DevAddr);
 2002              		.loc 1 567 6
 2003 0056 FB68     		ldr	r3, [r7, #12]
 2004 0058 1A68     		ldr	r2, [r3]
 2005 005a FB68     		ldr	r3, [r7, #12]
 2006 005c 5B7F     		ldrb	r3, [r3, #29]	@ zero_extendqisi2
 2007 005e 1946     		mov	r1, r3
 2008 0060 1046     		mov	r0, r2
 2009 0062 FFF7FEFF 		bl	I2C_ExecuteAddressPhaseRead
 568:drivers/Src/stm32f767xx_i2c_driver.c **** 
 569:drivers/Src/stm32f767xx_i2c_driver.c ****         // Set autoend to 0, and length of data to be received
 570:drivers/Src/stm32f767xx_i2c_driver.c ****         pI2CHandle->pI2Cx->CR2 &= ~(1 << I2C_CR2_AUTOEND);  //software end mode: TC flag is set whe
 2010              		.loc 1 570 19
 2011 0066 FB68     		ldr	r3, [r7, #12]
 2012 0068 1B68     		ldr	r3, [r3]
 2013              		.loc 1 570 32
 2014 006a 5A68     		ldr	r2, [r3, #4]
 2015              		.loc 1 570 19
 2016 006c FB68     		ldr	r3, [r7, #12]
 2017 006e 1B68     		ldr	r3, [r3]
 2018              		.loc 1 570 32
 2019 0070 22F00072 		bic	r2, r2, #33554432
 2020 0074 5A60     		str	r2, [r3, #4]
 571:drivers/Src/stm32f767xx_i2c_driver.c ****         pI2CHandle->pI2Cx->CR2 |= (Len << I2C_CR2_NBYTES);  //number of bytes to be received
 2021              		.loc 1 571 19
 2022 0076 FB68     		ldr	r3, [r7, #12]
ARM GAS  /var/folders/0z/tsy30v1j4xl4_7kw94k978ww0000gn/T//cc82wOJ3.s 			page 47


 2023 0078 1B68     		ldr	r3, [r3]
 2024              		.loc 1 571 32
 2025 007a 5A68     		ldr	r2, [r3, #4]
 2026              		.loc 1 571 40
 2027 007c FB79     		ldrb	r3, [r7, #7]	@ zero_extendqisi2
 2028 007e 1B04     		lsls	r3, r3, #16
 2029 0080 1946     		mov	r1, r3
 2030              		.loc 1 571 19
 2031 0082 FB68     		ldr	r3, [r7, #12]
 2032 0084 1B68     		ldr	r3, [r3]
 2033              		.loc 1 571 32
 2034 0086 0A43     		orrs	r2, r2, r1
 2035 0088 5A60     		str	r2, [r3, #4]
 572:drivers/Src/stm32f767xx_i2c_driver.c **** 
 573:drivers/Src/stm32f767xx_i2c_driver.c ****         //Generate START Condition
 574:drivers/Src/stm32f767xx_i2c_driver.c **** 		I2C_GenerateStartCondition(pI2CHandle->pI2Cx);
 2036              		.loc 1 574 3
 2037 008a FB68     		ldr	r3, [r7, #12]
 2038 008c 1B68     		ldr	r3, [r3]
 2039 008e 1846     		mov	r0, r3
 2040 0090 FFF7FEFF 		bl	I2C_GenerateStartCondition
 575:drivers/Src/stm32f767xx_i2c_driver.c **** 
 576:drivers/Src/stm32f767xx_i2c_driver.c ****         //enable RXIE, STOPIE, TCIE Control Bits
 577:drivers/Src/stm32f767xx_i2c_driver.c **** 		pI2CHandle->pI2Cx->CR1 |= ( 1 << I2C_CR1_RXIE);
 2041              		.loc 1 577 13
 2042 0094 FB68     		ldr	r3, [r7, #12]
 2043 0096 1B68     		ldr	r3, [r3]
 2044              		.loc 1 577 26
 2045 0098 1A68     		ldr	r2, [r3]
 2046              		.loc 1 577 13
 2047 009a FB68     		ldr	r3, [r7, #12]
 2048 009c 1B68     		ldr	r3, [r3]
 2049              		.loc 1 577 26
 2050 009e 42F00402 		orr	r2, r2, #4
 2051 00a2 1A60     		str	r2, [r3]
 578:drivers/Src/stm32f767xx_i2c_driver.c ****         pI2CHandle->pI2Cx->CR1 |= ( 1 << I2C_CR1_STOPIE);
 2052              		.loc 1 578 19
 2053 00a4 FB68     		ldr	r3, [r7, #12]
 2054 00a6 1B68     		ldr	r3, [r3]
 2055              		.loc 1 578 32
 2056 00a8 1A68     		ldr	r2, [r3]
 2057              		.loc 1 578 19
 2058 00aa FB68     		ldr	r3, [r7, #12]
 2059 00ac 1B68     		ldr	r3, [r3]
 2060              		.loc 1 578 32
 2061 00ae 42F02002 		orr	r2, r2, #32
 2062 00b2 1A60     		str	r2, [r3]
 579:drivers/Src/stm32f767xx_i2c_driver.c ****         pI2CHandle->pI2Cx->CR1 |= ( 1 << I2C_CR1_TCIE);
 2063              		.loc 1 579 19
 2064 00b4 FB68     		ldr	r3, [r7, #12]
 2065 00b6 1B68     		ldr	r3, [r3]
 2066              		.loc 1 579 32
 2067 00b8 1A68     		ldr	r2, [r3]
 2068              		.loc 1 579 19
 2069 00ba FB68     		ldr	r3, [r7, #12]
 2070 00bc 1B68     		ldr	r3, [r3]
 2071              		.loc 1 579 32
ARM GAS  /var/folders/0z/tsy30v1j4xl4_7kw94k978ww0000gn/T//cc82wOJ3.s 			page 48


 2072 00be 42F04002 		orr	r2, r2, #64
 2073 00c2 1A60     		str	r2, [r3]
 580:drivers/Src/stm32f767xx_i2c_driver.c **** 
 581:drivers/Src/stm32f767xx_i2c_driver.c **** 		//enable ERRIE Control Bit
 582:drivers/Src/stm32f767xx_i2c_driver.c **** 		pI2CHandle->pI2Cx->CR1 |= ( 1 << I2C_CR1_ERRIE);
 2074              		.loc 1 582 13
 2075 00c4 FB68     		ldr	r3, [r7, #12]
 2076 00c6 1B68     		ldr	r3, [r3]
 2077              		.loc 1 582 26
 2078 00c8 1A68     		ldr	r2, [r3]
 2079              		.loc 1 582 13
 2080 00ca FB68     		ldr	r3, [r7, #12]
 2081 00cc 1B68     		ldr	r3, [r3]
 2082              		.loc 1 582 26
 2083 00ce 42F08002 		orr	r2, r2, #128
 2084 00d2 1A60     		str	r2, [r3]
 2085              	.L85:
 583:drivers/Src/stm32f767xx_i2c_driver.c **** 
 584:drivers/Src/stm32f767xx_i2c_driver.c **** 	}
 585:drivers/Src/stm32f767xx_i2c_driver.c **** 
 586:drivers/Src/stm32f767xx_i2c_driver.c **** 	return busystate;
 2086              		.loc 1 586 9
 2087 00d4 FB7D     		ldrb	r3, [r7, #23]	@ zero_extendqisi2
 587:drivers/Src/stm32f767xx_i2c_driver.c **** }
 2088              		.loc 1 587 1
 2089 00d6 1846     		mov	r0, r3
 2090 00d8 1837     		adds	r7, r7, #24
 2091              		.cfi_def_cfa_offset 8
 2092 00da BD46     		mov	sp, r7
 2093              		.cfi_def_cfa_register 13
 2094              		@ sp needed
 2095 00dc 80BD     		pop	{r7, pc}
 2096              		.cfi_endproc
 2097              	.LFE19:
 2099              		.section	.text.I2C_CloseSendData,"ax",%progbits
 2100              		.align	1
 2101              		.global	I2C_CloseSendData
 2102              		.syntax unified
 2103              		.thumb
 2104              		.thumb_func
 2106              	I2C_CloseSendData:
 2107              	.LFB20:
 588:drivers/Src/stm32f767xx_i2c_driver.c **** 
 589:drivers/Src/stm32f767xx_i2c_driver.c **** void I2C_CloseSendData(I2C_Handle_t *pI2CHandle)
 590:drivers/Src/stm32f767xx_i2c_driver.c **** {
 2108              		.loc 1 590 1
 2109              		.cfi_startproc
 2110              		@ args = 0, pretend = 0, frame = 8
 2111              		@ frame_needed = 1, uses_anonymous_args = 0
 2112              		@ link register save eliminated.
 2113 0000 80B4     		push	{r7}
 2114              		.cfi_def_cfa_offset 4
 2115              		.cfi_offset 7, -4
 2116 0002 83B0     		sub	sp, sp, #12
 2117              		.cfi_def_cfa_offset 16
 2118 0004 00AF     		add	r7, sp, #0
 2119              		.cfi_def_cfa_register 7
ARM GAS  /var/folders/0z/tsy30v1j4xl4_7kw94k978ww0000gn/T//cc82wOJ3.s 			page 49


 2120 0006 7860     		str	r0, [r7, #4]
 591:drivers/Src/stm32f767xx_i2c_driver.c ****     //disable TXIE, STOPIE, TCIE Control Bits
 592:drivers/Src/stm32f767xx_i2c_driver.c ****     pI2CHandle->pI2Cx->CR1 &= ~( 1 << I2C_CR1_TXIE);
 2121              		.loc 1 592 15
 2122 0008 7B68     		ldr	r3, [r7, #4]
 2123 000a 1B68     		ldr	r3, [r3]
 2124              		.loc 1 592 28
 2125 000c 1A68     		ldr	r2, [r3]
 2126              		.loc 1 592 15
 2127 000e 7B68     		ldr	r3, [r7, #4]
 2128 0010 1B68     		ldr	r3, [r3]
 2129              		.loc 1 592 28
 2130 0012 22F00202 		bic	r2, r2, #2
 2131 0016 1A60     		str	r2, [r3]
 593:drivers/Src/stm32f767xx_i2c_driver.c ****     pI2CHandle->pI2Cx->CR1 &= ~( 1 << I2C_CR1_STOPIE);
 2132              		.loc 1 593 15
 2133 0018 7B68     		ldr	r3, [r7, #4]
 2134 001a 1B68     		ldr	r3, [r3]
 2135              		.loc 1 593 28
 2136 001c 1A68     		ldr	r2, [r3]
 2137              		.loc 1 593 15
 2138 001e 7B68     		ldr	r3, [r7, #4]
 2139 0020 1B68     		ldr	r3, [r3]
 2140              		.loc 1 593 28
 2141 0022 22F02002 		bic	r2, r2, #32
 2142 0026 1A60     		str	r2, [r3]
 594:drivers/Src/stm32f767xx_i2c_driver.c ****     pI2CHandle->pI2Cx->CR1 &= ~( 1 << I2C_CR1_TCIE);
 2143              		.loc 1 594 15
 2144 0028 7B68     		ldr	r3, [r7, #4]
 2145 002a 1B68     		ldr	r3, [r3]
 2146              		.loc 1 594 28
 2147 002c 1A68     		ldr	r2, [r3]
 2148              		.loc 1 594 15
 2149 002e 7B68     		ldr	r3, [r7, #4]
 2150 0030 1B68     		ldr	r3, [r3]
 2151              		.loc 1 594 28
 2152 0032 22F04002 		bic	r2, r2, #64
 2153 0036 1A60     		str	r2, [r3]
 595:drivers/Src/stm32f767xx_i2c_driver.c **** 
 596:drivers/Src/stm32f767xx_i2c_driver.c **** 	pI2CHandle->TxRxState = I2C_READY;
 2154              		.loc 1 596 24
 2155 0038 7B68     		ldr	r3, [r7, #4]
 2156 003a 0022     		movs	r2, #0
 2157 003c 1A77     		strb	r2, [r3, #28]
 597:drivers/Src/stm32f767xx_i2c_driver.c ****     pI2CHandle->pTxBuffer = NULL;
 2158              		.loc 1 597 27
 2159 003e 7B68     		ldr	r3, [r7, #4]
 2160 0040 0022     		movs	r2, #0
 2161 0042 DA60     		str	r2, [r3, #12]
 598:drivers/Src/stm32f767xx_i2c_driver.c ****     pI2CHandle->TxLen = 0;
 2162              		.loc 1 598 23
 2163 0044 7B68     		ldr	r3, [r7, #4]
 2164 0046 0022     		movs	r2, #0
 2165 0048 5A61     		str	r2, [r3, #20]
 599:drivers/Src/stm32f767xx_i2c_driver.c **** 
 600:drivers/Src/stm32f767xx_i2c_driver.c ****     //pI2CHandle->pI2Cx->CR2 = 0x0; // clear CR2 register
 601:drivers/Src/stm32f767xx_i2c_driver.c **** }
ARM GAS  /var/folders/0z/tsy30v1j4xl4_7kw94k978ww0000gn/T//cc82wOJ3.s 			page 50


 2166              		.loc 1 601 1
 2167 004a 00BF     		nop
 2168 004c 0C37     		adds	r7, r7, #12
 2169              		.cfi_def_cfa_offset 4
 2170 004e BD46     		mov	sp, r7
 2171              		.cfi_def_cfa_register 13
 2172              		@ sp needed
 2173 0050 5DF8047B 		ldr	r7, [sp], #4
 2174              		.cfi_restore 7
 2175              		.cfi_def_cfa_offset 0
 2176 0054 7047     		bx	lr
 2177              		.cfi_endproc
 2178              	.LFE20:
 2180              		.section	.text.I2C_CloseReceiveData,"ax",%progbits
 2181              		.align	1
 2182              		.global	I2C_CloseReceiveData
 2183              		.syntax unified
 2184              		.thumb
 2185              		.thumb_func
 2187              	I2C_CloseReceiveData:
 2188              	.LFB21:
 602:drivers/Src/stm32f767xx_i2c_driver.c **** 
 603:drivers/Src/stm32f767xx_i2c_driver.c **** 
 604:drivers/Src/stm32f767xx_i2c_driver.c **** void I2C_CloseReceiveData(I2C_Handle_t *pI2CHandle)
 605:drivers/Src/stm32f767xx_i2c_driver.c **** {
 2189              		.loc 1 605 1
 2190              		.cfi_startproc
 2191              		@ args = 0, pretend = 0, frame = 8
 2192              		@ frame_needed = 1, uses_anonymous_args = 0
 2193              		@ link register save eliminated.
 2194 0000 80B4     		push	{r7}
 2195              		.cfi_def_cfa_offset 4
 2196              		.cfi_offset 7, -4
 2197 0002 83B0     		sub	sp, sp, #12
 2198              		.cfi_def_cfa_offset 16
 2199 0004 00AF     		add	r7, sp, #0
 2200              		.cfi_def_cfa_register 7
 2201 0006 7860     		str	r0, [r7, #4]
 606:drivers/Src/stm32f767xx_i2c_driver.c ****     //disable RXIE, STOPIE, TCIE, NACKIE Control Bits
 607:drivers/Src/stm32f767xx_i2c_driver.c ****     pI2CHandle->pI2Cx->CR1 &= ~( 1 << I2C_CR1_RXIE);
 2202              		.loc 1 607 15
 2203 0008 7B68     		ldr	r3, [r7, #4]
 2204 000a 1B68     		ldr	r3, [r3]
 2205              		.loc 1 607 28
 2206 000c 1A68     		ldr	r2, [r3]
 2207              		.loc 1 607 15
 2208 000e 7B68     		ldr	r3, [r7, #4]
 2209 0010 1B68     		ldr	r3, [r3]
 2210              		.loc 1 607 28
 2211 0012 22F00402 		bic	r2, r2, #4
 2212 0016 1A60     		str	r2, [r3]
 608:drivers/Src/stm32f767xx_i2c_driver.c ****     pI2CHandle->pI2Cx->CR1 &= ~( 1 << I2C_CR1_STOPIE);
 2213              		.loc 1 608 15
 2214 0018 7B68     		ldr	r3, [r7, #4]
 2215 001a 1B68     		ldr	r3, [r3]
 2216              		.loc 1 608 28
 2217 001c 1A68     		ldr	r2, [r3]
ARM GAS  /var/folders/0z/tsy30v1j4xl4_7kw94k978ww0000gn/T//cc82wOJ3.s 			page 51


 2218              		.loc 1 608 15
 2219 001e 7B68     		ldr	r3, [r7, #4]
 2220 0020 1B68     		ldr	r3, [r3]
 2221              		.loc 1 608 28
 2222 0022 22F02002 		bic	r2, r2, #32
 2223 0026 1A60     		str	r2, [r3]
 609:drivers/Src/stm32f767xx_i2c_driver.c ****     pI2CHandle->pI2Cx->CR1 &= ~( 1 << I2C_CR1_TCIE);
 2224              		.loc 1 609 15
 2225 0028 7B68     		ldr	r3, [r7, #4]
 2226 002a 1B68     		ldr	r3, [r3]
 2227              		.loc 1 609 28
 2228 002c 1A68     		ldr	r2, [r3]
 2229              		.loc 1 609 15
 2230 002e 7B68     		ldr	r3, [r7, #4]
 2231 0030 1B68     		ldr	r3, [r3]
 2232              		.loc 1 609 28
 2233 0032 22F04002 		bic	r2, r2, #64
 2234 0036 1A60     		str	r2, [r3]
 610:drivers/Src/stm32f767xx_i2c_driver.c **** 
 611:drivers/Src/stm32f767xx_i2c_driver.c **** 	pI2CHandle->TxRxState = I2C_READY;
 2235              		.loc 1 611 24
 2236 0038 7B68     		ldr	r3, [r7, #4]
 2237 003a 0022     		movs	r2, #0
 2238 003c 1A77     		strb	r2, [r3, #28]
 612:drivers/Src/stm32f767xx_i2c_driver.c **** 	pI2CHandle->pRxBuffer = NULL;
 2239              		.loc 1 612 24
 2240 003e 7B68     		ldr	r3, [r7, #4]
 2241 0040 0022     		movs	r2, #0
 2242 0042 1A61     		str	r2, [r3, #16]
 613:drivers/Src/stm32f767xx_i2c_driver.c **** 	pI2CHandle->RxLen = 0;
 2243              		.loc 1 613 20
 2244 0044 7B68     		ldr	r3, [r7, #4]
 2245 0046 0022     		movs	r2, #0
 2246 0048 9A61     		str	r2, [r3, #24]
 614:drivers/Src/stm32f767xx_i2c_driver.c **** 	pI2CHandle->RxSize = 0;
 2247              		.loc 1 614 21
 2248 004a 7B68     		ldr	r3, [r7, #4]
 2249 004c 0022     		movs	r2, #0
 2250 004e 1A62     		str	r2, [r3, #32]
 615:drivers/Src/stm32f767xx_i2c_driver.c **** 
 616:drivers/Src/stm32f767xx_i2c_driver.c ****     //pI2CHandle->pI2Cx->CR2 = 0x0; // clear CR2 register
 617:drivers/Src/stm32f767xx_i2c_driver.c **** }
 2251              		.loc 1 617 1
 2252 0050 00BF     		nop
 2253 0052 0C37     		adds	r7, r7, #12
 2254              		.cfi_def_cfa_offset 4
 2255 0054 BD46     		mov	sp, r7
 2256              		.cfi_def_cfa_register 13
 2257              		@ sp needed
 2258 0056 5DF8047B 		ldr	r7, [sp], #4
 2259              		.cfi_restore 7
 2260              		.cfi_def_cfa_offset 0
 2261 005a 7047     		bx	lr
 2262              		.cfi_endproc
 2263              	.LFE21:
 2265              		.section	.text.I2C_EV_IRQHandling,"ax",%progbits
 2266              		.align	1
ARM GAS  /var/folders/0z/tsy30v1j4xl4_7kw94k978ww0000gn/T//cc82wOJ3.s 			page 52


 2267              		.global	I2C_EV_IRQHandling
 2268              		.syntax unified
 2269              		.thumb
 2270              		.thumb_func
 2272              	I2C_EV_IRQHandling:
 2273              	.LFB22:
 618:drivers/Src/stm32f767xx_i2c_driver.c **** 
 619:drivers/Src/stm32f767xx_i2c_driver.c **** 
 620:drivers/Src/stm32f767xx_i2c_driver.c **** 
 621:drivers/Src/stm32f767xx_i2c_driver.c **** 
 622:drivers/Src/stm32f767xx_i2c_driver.c **** /**
 623:drivers/Src/stm32f767xx_i2c_driver.c ****  * @brief I2C Event IRQ Handling
 624:drivers/Src/stm32f767xx_i2c_driver.c ****  * 
 625:drivers/Src/stm32f767xx_i2c_driver.c ****  * @param pI2CHandle 
 626:drivers/Src/stm32f767xx_i2c_driver.c ****  */
 627:drivers/Src/stm32f767xx_i2c_driver.c **** void I2C_EV_IRQHandling(I2C_Handle_t *pI2CHandle)
 628:drivers/Src/stm32f767xx_i2c_driver.c **** {
 2274              		.loc 1 628 1
 2275              		.cfi_startproc
 2276              		@ args = 0, pretend = 0, frame = 16
 2277              		@ frame_needed = 1, uses_anonymous_args = 0
 2278 0000 80B5     		push	{r7, lr}
 2279              		.cfi_def_cfa_offset 8
 2280              		.cfi_offset 7, -8
 2281              		.cfi_offset 14, -4
 2282 0002 84B0     		sub	sp, sp, #16
 2283              		.cfi_def_cfa_offset 24
 2284 0004 00AF     		add	r7, sp, #0
 2285              		.cfi_def_cfa_register 7
 2286 0006 7860     		str	r0, [r7, #4]
 629:drivers/Src/stm32f767xx_i2c_driver.c ****     uint32_t temp1, temp2;
 630:drivers/Src/stm32f767xx_i2c_driver.c **** 
 631:drivers/Src/stm32f767xx_i2c_driver.c ****     // Handle for interrupt generated by ADDR event
 632:drivers/Src/stm32f767xx_i2c_driver.c ****     temp1 = pI2CHandle->pI2Cx->CR1 & (1 << I2C_CR1_ADDRIE);
 2287              		.loc 1 632 23
 2288 0008 7B68     		ldr	r3, [r7, #4]
 2289 000a 1B68     		ldr	r3, [r3]
 2290              		.loc 1 632 30
 2291 000c 1B68     		ldr	r3, [r3]
 2292              		.loc 1 632 11
 2293 000e 03F00803 		and	r3, r3, #8
 2294 0012 FB60     		str	r3, [r7, #12]
 633:drivers/Src/stm32f767xx_i2c_driver.c ****     temp2 = pI2CHandle->pI2Cx->ISR & (1 << I2C_ISR_ADDR);
 2295              		.loc 1 633 23
 2296 0014 7B68     		ldr	r3, [r7, #4]
 2297 0016 1B68     		ldr	r3, [r3]
 2298              		.loc 1 633 30
 2299 0018 9B69     		ldr	r3, [r3, #24]
 2300              		.loc 1 633 11
 2301 001a 03F00803 		and	r3, r3, #8
 2302 001e BB60     		str	r3, [r7, #8]
 634:drivers/Src/stm32f767xx_i2c_driver.c ****     if (temp1 && temp2)
 2303              		.loc 1 634 8
 2304 0020 FB68     		ldr	r3, [r7, #12]
 2305 0022 002B     		cmp	r3, #0
 2306 0024 12D0     		beq	.L90
 2307              		.loc 1 634 15 discriminator 1
ARM GAS  /var/folders/0z/tsy30v1j4xl4_7kw94k978ww0000gn/T//cc82wOJ3.s 			page 53


 2308 0026 BB68     		ldr	r3, [r7, #8]
 2309 0028 002B     		cmp	r3, #0
 2310 002a 0FD0     		beq	.L90
 635:drivers/Src/stm32f767xx_i2c_driver.c ****     {
 636:drivers/Src/stm32f767xx_i2c_driver.c ****         // clear flag by setting the ADDRCF bit:
 637:drivers/Src/stm32f767xx_i2c_driver.c ****         pI2CHandle->pI2Cx->ICR |= (1 << I2C_ICR_ADDRCF);
 2311              		.loc 1 637 19
 2312 002c 7B68     		ldr	r3, [r7, #4]
 2313 002e 1B68     		ldr	r3, [r3]
 2314              		.loc 1 637 32
 2315 0030 DA69     		ldr	r2, [r3, #28]
 2316              		.loc 1 637 19
 2317 0032 7B68     		ldr	r3, [r7, #4]
 2318 0034 1B68     		ldr	r3, [r3]
 2319              		.loc 1 637 32
 2320 0036 42F00802 		orr	r2, r2, #8
 2321 003a DA61     		str	r2, [r3, #28]
 638:drivers/Src/stm32f767xx_i2c_driver.c ****         /* Enable Address Acknowledge */
 639:drivers/Src/stm32f767xx_i2c_driver.c ****         pI2CHandle->pI2Cx->CR2 &= ~(1 << I2C_CR2_NACK);
 2322              		.loc 1 639 19
 2323 003c 7B68     		ldr	r3, [r7, #4]
 2324 003e 1B68     		ldr	r3, [r3]
 2325              		.loc 1 639 32
 2326 0040 5A68     		ldr	r2, [r3, #4]
 2327              		.loc 1 639 19
 2328 0042 7B68     		ldr	r3, [r7, #4]
 2329 0044 1B68     		ldr	r3, [r3]
 2330              		.loc 1 639 32
 2331 0046 22F40042 		bic	r2, r2, #32768
 2332 004a 5A60     		str	r2, [r3, #4]
 2333              	.L90:
 640:drivers/Src/stm32f767xx_i2c_driver.c ****     }
 641:drivers/Src/stm32f767xx_i2c_driver.c **** 
 642:drivers/Src/stm32f767xx_i2c_driver.c ****     // Handle for interrupt generated by received NACK event
 643:drivers/Src/stm32f767xx_i2c_driver.c ****     temp1 = pI2CHandle->pI2Cx->CR1 & (1 << I2C_CR1_NACKIE);
 2334              		.loc 1 643 23
 2335 004c 7B68     		ldr	r3, [r7, #4]
 2336 004e 1B68     		ldr	r3, [r3]
 2337              		.loc 1 643 30
 2338 0050 1B68     		ldr	r3, [r3]
 2339              		.loc 1 643 11
 2340 0052 03F01003 		and	r3, r3, #16
 2341 0056 FB60     		str	r3, [r7, #12]
 644:drivers/Src/stm32f767xx_i2c_driver.c ****     temp2 = pI2CHandle->pI2Cx->ISR & (1 << I2C_ISR_NACKF);
 2342              		.loc 1 644 23
 2343 0058 7B68     		ldr	r3, [r7, #4]
 2344 005a 1B68     		ldr	r3, [r3]
 2345              		.loc 1 644 30
 2346 005c 9B69     		ldr	r3, [r3, #24]
 2347              		.loc 1 644 11
 2348 005e 03F01003 		and	r3, r3, #16
 2349 0062 BB60     		str	r3, [r7, #8]
 645:drivers/Src/stm32f767xx_i2c_driver.c ****     if (temp1 && temp2)
 2350              		.loc 1 645 8
 2351 0064 FB68     		ldr	r3, [r7, #12]
 2352 0066 002B     		cmp	r3, #0
 2353 0068 0ED0     		beq	.L91
ARM GAS  /var/folders/0z/tsy30v1j4xl4_7kw94k978ww0000gn/T//cc82wOJ3.s 			page 54


 2354              		.loc 1 645 15 discriminator 1
 2355 006a BB68     		ldr	r3, [r7, #8]
 2356 006c 002B     		cmp	r3, #0
 2357 006e 0BD0     		beq	.L91
 646:drivers/Src/stm32f767xx_i2c_driver.c ****     {
 647:drivers/Src/stm32f767xx_i2c_driver.c ****         // clear flag by setting the NACKCF bit:
 648:drivers/Src/stm32f767xx_i2c_driver.c ****         pI2CHandle->pI2Cx->ICR |= (1 << I2C_ICR_NACKCF);
 2358              		.loc 1 648 19
 2359 0070 7B68     		ldr	r3, [r7, #4]
 2360 0072 1B68     		ldr	r3, [r3]
 2361              		.loc 1 648 32
 2362 0074 DA69     		ldr	r2, [r3, #28]
 2363              		.loc 1 648 19
 2364 0076 7B68     		ldr	r3, [r7, #4]
 2365 0078 1B68     		ldr	r3, [r3]
 2366              		.loc 1 648 32
 2367 007a 42F01002 		orr	r2, r2, #16
 2368 007e DA61     		str	r2, [r3, #28]
 649:drivers/Src/stm32f767xx_i2c_driver.c **** 
 650:drivers/Src/stm32f767xx_i2c_driver.c ****         I2C_ApplicationEventCallback(pI2CHandle,I2C_EV_NACK);
 2369              		.loc 1 650 9
 2370 0080 0321     		movs	r1, #3
 2371 0082 7868     		ldr	r0, [r7, #4]
 2372 0084 FFF7FEFF 		bl	I2C_ApplicationEventCallback
 2373              	.L91:
 651:drivers/Src/stm32f767xx_i2c_driver.c ****     }
 652:drivers/Src/stm32f767xx_i2c_driver.c **** 
 653:drivers/Src/stm32f767xx_i2c_driver.c **** 
 654:drivers/Src/stm32f767xx_i2c_driver.c ****     // Handle for interrupt generated by TC event
 655:drivers/Src/stm32f767xx_i2c_driver.c ****     temp1 = pI2CHandle->pI2Cx->CR1 & (1 << I2C_CR1_TCIE);
 2374              		.loc 1 655 23
 2375 0088 7B68     		ldr	r3, [r7, #4]
 2376 008a 1B68     		ldr	r3, [r3]
 2377              		.loc 1 655 30
 2378 008c 1B68     		ldr	r3, [r3]
 2379              		.loc 1 655 11
 2380 008e 03F04003 		and	r3, r3, #64
 2381 0092 FB60     		str	r3, [r7, #12]
 656:drivers/Src/stm32f767xx_i2c_driver.c ****     temp2 = pI2CHandle->pI2Cx->ISR & (1 << I2C_ISR_TC);
 2382              		.loc 1 656 23
 2383 0094 7B68     		ldr	r3, [r7, #4]
 2384 0096 1B68     		ldr	r3, [r3]
 2385              		.loc 1 656 30
 2386 0098 9B69     		ldr	r3, [r3, #24]
 2387              		.loc 1 656 11
 2388 009a 03F04003 		and	r3, r3, #64
 2389 009e BB60     		str	r3, [r7, #8]
 657:drivers/Src/stm32f767xx_i2c_driver.c ****     if (temp1 && temp2)
 2390              		.loc 1 657 8
 2391 00a0 FB68     		ldr	r3, [r7, #12]
 2392 00a2 002B     		cmp	r3, #0
 2393 00a4 13D0     		beq	.L92
 2394              		.loc 1 657 15 discriminator 1
 2395 00a6 BB68     		ldr	r3, [r7, #8]
 2396 00a8 002B     		cmp	r3, #0
 2397 00aa 10D0     		beq	.L92
 658:drivers/Src/stm32f767xx_i2c_driver.c ****     {
ARM GAS  /var/folders/0z/tsy30v1j4xl4_7kw94k978ww0000gn/T//cc82wOJ3.s 			page 55


 659:drivers/Src/stm32f767xx_i2c_driver.c ****             //1. generate the STOP condition
 660:drivers/Src/stm32f767xx_i2c_driver.c ****             if(pI2CHandle->Sr == I2C_DISABLE_SR)
 2398              		.loc 1 660 26
 2399 00ac 7B68     		ldr	r3, [r7, #4]
 2400 00ae 93F82430 		ldrb	r3, [r3, #36]	@ zero_extendqisi2
 2401              		.loc 1 660 15
 2402 00b2 002B     		cmp	r3, #0
 2403 00b4 04D1     		bne	.L93
 661:drivers/Src/stm32f767xx_i2c_driver.c ****             {
 662:drivers/Src/stm32f767xx_i2c_driver.c ****                 I2C_GenerateStopCondition(pI2CHandle->pI2Cx);
 2404              		.loc 1 662 17
 2405 00b6 7B68     		ldr	r3, [r7, #4]
 2406 00b8 1B68     		ldr	r3, [r3]
 2407 00ba 1846     		mov	r0, r3
 2408 00bc FFF7FEFF 		bl	I2C_GenerateStopCondition
 2409              	.L93:
 663:drivers/Src/stm32f767xx_i2c_driver.c ****             }
 664:drivers/Src/stm32f767xx_i2c_driver.c **** 
 665:drivers/Src/stm32f767xx_i2c_driver.c ****             // 2. reset all the member elements of the handle structure.
 666:drivers/Src/stm32f767xx_i2c_driver.c ****             I2C_CloseSendData(pI2CHandle);
 2410              		.loc 1 666 13
 2411 00c0 7868     		ldr	r0, [r7, #4]
 2412 00c2 FFF7FEFF 		bl	I2C_CloseSendData
 667:drivers/Src/stm32f767xx_i2c_driver.c **** 
 668:drivers/Src/stm32f767xx_i2c_driver.c ****             pI2CHandle->pI2Cx->CR2 = 0x0; // clear CR2 register
 2413              		.loc 1 668 23
 2414 00c6 7B68     		ldr	r3, [r7, #4]
 2415 00c8 1B68     		ldr	r3, [r3]
 2416              		.loc 1 668 36
 2417 00ca 0022     		movs	r2, #0
 2418 00cc 5A60     		str	r2, [r3, #4]
 2419              	.L92:
 669:drivers/Src/stm32f767xx_i2c_driver.c **** 
 670:drivers/Src/stm32f767xx_i2c_driver.c ****     }
 671:drivers/Src/stm32f767xx_i2c_driver.c **** 
 672:drivers/Src/stm32f767xx_i2c_driver.c ****     // Handle for interrupt generated by STOPF event
 673:drivers/Src/stm32f767xx_i2c_driver.c ****     temp1 = pI2CHandle->pI2Cx->CR1 & (1 << I2C_CR1_STOPIE);
 2420              		.loc 1 673 23
 2421 00ce 7B68     		ldr	r3, [r7, #4]
 2422 00d0 1B68     		ldr	r3, [r3]
 2423              		.loc 1 673 30
 2424 00d2 1B68     		ldr	r3, [r3]
 2425              		.loc 1 673 11
 2426 00d4 03F02003 		and	r3, r3, #32
 2427 00d8 FB60     		str	r3, [r7, #12]
 674:drivers/Src/stm32f767xx_i2c_driver.c ****     temp2 = pI2CHandle->pI2Cx->ISR & (1 << I2C_ISR_STOPF);
 2428              		.loc 1 674 23
 2429 00da 7B68     		ldr	r3, [r7, #4]
 2430 00dc 1B68     		ldr	r3, [r3]
 2431              		.loc 1 674 30
 2432 00de 9B69     		ldr	r3, [r3, #24]
 2433              		.loc 1 674 11
 2434 00e0 03F02003 		and	r3, r3, #32
 2435 00e4 BB60     		str	r3, [r7, #8]
 675:drivers/Src/stm32f767xx_i2c_driver.c ****     if (temp1 && temp2)
 2436              		.loc 1 675 8
 2437 00e6 FB68     		ldr	r3, [r7, #12]
ARM GAS  /var/folders/0z/tsy30v1j4xl4_7kw94k978ww0000gn/T//cc82wOJ3.s 			page 56


 2438 00e8 002B     		cmp	r3, #0
 2439 00ea 0AD0     		beq	.L94
 2440              		.loc 1 675 15 discriminator 1
 2441 00ec BB68     		ldr	r3, [r7, #8]
 2442 00ee 002B     		cmp	r3, #0
 2443 00f0 07D0     		beq	.L94
 676:drivers/Src/stm32f767xx_i2c_driver.c ****     {
 677:drivers/Src/stm32f767xx_i2c_driver.c ****         // STOPF flag is set
 678:drivers/Src/stm32f767xx_i2c_driver.c ****         // - set by hardware when a Stop condition is detected.
 679:drivers/Src/stm32f767xx_i2c_driver.c ****         // - cleared by software by setting the STOPCF bit:
 680:drivers/Src/stm32f767xx_i2c_driver.c ****         pI2CHandle->pI2Cx->ICR |= (1 << I2C_ICR_STOPCF);
 2444              		.loc 1 680 19
 2445 00f2 7B68     		ldr	r3, [r7, #4]
 2446 00f4 1B68     		ldr	r3, [r3]
 2447              		.loc 1 680 32
 2448 00f6 DA69     		ldr	r2, [r3, #28]
 2449              		.loc 1 680 19
 2450 00f8 7B68     		ldr	r3, [r7, #4]
 2451 00fa 1B68     		ldr	r3, [r3]
 2452              		.loc 1 680 32
 2453 00fc 42F02002 		orr	r2, r2, #32
 2454 0100 DA61     		str	r2, [r3, #28]
 2455              	.L94:
 681:drivers/Src/stm32f767xx_i2c_driver.c **** 
 682:drivers/Src/stm32f767xx_i2c_driver.c ****         //Notify the application that STOP is detected
 683:drivers/Src/stm32f767xx_i2c_driver.c ****         //I2C_ApplicationEventCallback(pI2CHandle, I2C_EV_STOP);
 684:drivers/Src/stm32f767xx_i2c_driver.c ****     }
 685:drivers/Src/stm32f767xx_i2c_driver.c **** 
 686:drivers/Src/stm32f767xx_i2c_driver.c ****     // Handle for interrupt generated by TXIS event
 687:drivers/Src/stm32f767xx_i2c_driver.c ****     temp1 = pI2CHandle->pI2Cx->CR1 & (1 << I2C_CR1_TXIE);
 2456              		.loc 1 687 23
 2457 0102 7B68     		ldr	r3, [r7, #4]
 2458 0104 1B68     		ldr	r3, [r3]
 2459              		.loc 1 687 30
 2460 0106 1B68     		ldr	r3, [r3]
 2461              		.loc 1 687 11
 2462 0108 03F00203 		and	r3, r3, #2
 2463 010c FB60     		str	r3, [r7, #12]
 688:drivers/Src/stm32f767xx_i2c_driver.c ****     temp2 = pI2CHandle->pI2Cx->ISR & (1 << I2C_ISR_TXIS);
 2464              		.loc 1 688 23
 2465 010e 7B68     		ldr	r3, [r7, #4]
 2466 0110 1B68     		ldr	r3, [r3]
 2467              		.loc 1 688 30
 2468 0112 9B69     		ldr	r3, [r3, #24]
 2469              		.loc 1 688 11
 2470 0114 03F00203 		and	r3, r3, #2
 2471 0118 BB60     		str	r3, [r7, #8]
 689:drivers/Src/stm32f767xx_i2c_driver.c ****     if (temp1 && temp2)
 2472              		.loc 1 689 8
 2473 011a FB68     		ldr	r3, [r7, #12]
 2474 011c 002B     		cmp	r3, #0
 2475 011e 2AD0     		beq	.L95
 2476              		.loc 1 689 15 discriminator 1
 2477 0120 BB68     		ldr	r3, [r7, #8]
 2478 0122 002B     		cmp	r3, #0
 2479 0124 27D0     		beq	.L95
 690:drivers/Src/stm32f767xx_i2c_driver.c ****     {
ARM GAS  /var/folders/0z/tsy30v1j4xl4_7kw94k978ww0000gn/T//cc82wOJ3.s 			page 57


 691:drivers/Src/stm32f767xx_i2c_driver.c ****         // TXIS flag is set
 692:drivers/Src/stm32f767xx_i2c_driver.c **** 
 693:drivers/Src/stm32f767xx_i2c_driver.c ****         //check for device mode
 694:drivers/Src/stm32f767xx_i2c_driver.c ****         if (pI2CHandle->Mode == I2C_MODE_MASTER)
 2480              		.loc 1 694 23
 2481 0126 7B68     		ldr	r3, [r7, #4]
 2482 0128 9B7F     		ldrb	r3, [r3, #30]	@ zero_extendqisi2
 2483              		.loc 1 694 12
 2484 012a 012B     		cmp	r3, #1
 2485 012c 18D1     		bne	.L96
 695:drivers/Src/stm32f767xx_i2c_driver.c ****         {
 696:drivers/Src/stm32f767xx_i2c_driver.c ****             // master: We have to do the data transmission
 697:drivers/Src/stm32f767xx_i2c_driver.c ****             if(pI2CHandle->TxRxState == I2C_BUSY_IN_TX)
 2486              		.loc 1 697 26
 2487 012e 7B68     		ldr	r3, [r7, #4]
 2488 0130 1B7F     		ldrb	r3, [r3, #28]	@ zero_extendqisi2
 2489              		.loc 1 697 15
 2490 0132 022B     		cmp	r3, #2
 2491 0134 1FD1     		bne	.L95
 698:drivers/Src/stm32f767xx_i2c_driver.c ****             {
 699:drivers/Src/stm32f767xx_i2c_driver.c ****                 if (pI2CHandle->TxLen > 0)
 2492              		.loc 1 699 31
 2493 0136 7B68     		ldr	r3, [r7, #4]
 2494 0138 5B69     		ldr	r3, [r3, #20]
 2495              		.loc 1 699 20
 2496 013a 002B     		cmp	r3, #0
 2497 013c 1BD0     		beq	.L95
 700:drivers/Src/stm32f767xx_i2c_driver.c ****                 {
 701:drivers/Src/stm32f767xx_i2c_driver.c ****                     // 1. load the data in TXDR
 702:drivers/Src/stm32f767xx_i2c_driver.c ****                     pI2CHandle->pI2Cx->TXDR = *(pI2CHandle->pTxBuffer);
 2498              		.loc 1 702 59
 2499 013e 7B68     		ldr	r3, [r7, #4]
 2500 0140 DB68     		ldr	r3, [r3, #12]
 2501              		.loc 1 702 47
 2502 0142 1A78     		ldrb	r2, [r3]	@ zero_extendqisi2
 2503              		.loc 1 702 31
 2504 0144 7B68     		ldr	r3, [r7, #4]
 2505 0146 1B68     		ldr	r3, [r3]
 2506              		.loc 1 702 45
 2507 0148 9A62     		str	r2, [r3, #40]
 703:drivers/Src/stm32f767xx_i2c_driver.c ****                     // 2. decrement TxLen
 704:drivers/Src/stm32f767xx_i2c_driver.c ****                     pI2CHandle->TxLen--;
 2508              		.loc 1 704 31
 2509 014a 7B68     		ldr	r3, [r7, #4]
 2510 014c 5B69     		ldr	r3, [r3, #20]
 2511              		.loc 1 704 38
 2512 014e 5A1E     		subs	r2, r3, #1
 2513 0150 7B68     		ldr	r3, [r7, #4]
 2514 0152 5A61     		str	r2, [r3, #20]
 705:drivers/Src/stm32f767xx_i2c_driver.c ****                     // 3. increment buffer address
 706:drivers/Src/stm32f767xx_i2c_driver.c ****                     pI2CHandle->pTxBuffer++;
 2515              		.loc 1 706 31
 2516 0154 7B68     		ldr	r3, [r7, #4]
 2517 0156 DB68     		ldr	r3, [r3, #12]
 2518              		.loc 1 706 42
 2519 0158 5A1C     		adds	r2, r3, #1
 2520 015a 7B68     		ldr	r3, [r7, #4]
ARM GAS  /var/folders/0z/tsy30v1j4xl4_7kw94k978ww0000gn/T//cc82wOJ3.s 			page 58


 2521 015c DA60     		str	r2, [r3, #12]
 2522 015e 0AE0     		b	.L95
 2523              	.L96:
 707:drivers/Src/stm32f767xx_i2c_driver.c ****                     
 708:drivers/Src/stm32f767xx_i2c_driver.c ****                 }
 709:drivers/Src/stm32f767xx_i2c_driver.c **** 
 710:drivers/Src/stm32f767xx_i2c_driver.c ****             }
 711:drivers/Src/stm32f767xx_i2c_driver.c ****         }else 
 712:drivers/Src/stm32f767xx_i2c_driver.c ****         {
 713:drivers/Src/stm32f767xx_i2c_driver.c ****             //slave
 714:drivers/Src/stm32f767xx_i2c_driver.c ****             // check that slave is in transmitter mode (DIR bit set in ISR register)
 715:drivers/Src/stm32f767xx_i2c_driver.c ****             if (pI2CHandle->pI2Cx->ISR & (1<<I2C_ISR_DIR))
 2524              		.loc 1 715 27
 2525 0160 7B68     		ldr	r3, [r7, #4]
 2526 0162 1B68     		ldr	r3, [r3]
 2527              		.loc 1 715 34
 2528 0164 9B69     		ldr	r3, [r3, #24]
 2529              		.loc 1 715 40
 2530 0166 03F48033 		and	r3, r3, #65536
 2531              		.loc 1 715 16
 2532 016a 002B     		cmp	r3, #0
 2533 016c 03D0     		beq	.L95
 716:drivers/Src/stm32f767xx_i2c_driver.c ****             {
 717:drivers/Src/stm32f767xx_i2c_driver.c ****                 I2C_ApplicationEventCallback(pI2CHandle, I2C_EV_DATA_REQ);
 2534              		.loc 1 717 17
 2535 016e 0421     		movs	r1, #4
 2536 0170 7868     		ldr	r0, [r7, #4]
 2537 0172 FFF7FEFF 		bl	I2C_ApplicationEventCallback
 2538              	.L95:
 718:drivers/Src/stm32f767xx_i2c_driver.c ****             }
 719:drivers/Src/stm32f767xx_i2c_driver.c ****             
 720:drivers/Src/stm32f767xx_i2c_driver.c ****         }
 721:drivers/Src/stm32f767xx_i2c_driver.c ****         
 722:drivers/Src/stm32f767xx_i2c_driver.c ****         
 723:drivers/Src/stm32f767xx_i2c_driver.c ****     }
 724:drivers/Src/stm32f767xx_i2c_driver.c **** 
 725:drivers/Src/stm32f767xx_i2c_driver.c ****     // Handle for interrupt generated by RXNE event
 726:drivers/Src/stm32f767xx_i2c_driver.c ****     temp1 = pI2CHandle->pI2Cx->CR1 & (1 << I2C_CR1_RXIE);
 2539              		.loc 1 726 23
 2540 0176 7B68     		ldr	r3, [r7, #4]
 2541 0178 1B68     		ldr	r3, [r3]
 2542              		.loc 1 726 30
 2543 017a 1B68     		ldr	r3, [r3]
 2544              		.loc 1 726 11
 2545 017c 03F00403 		and	r3, r3, #4
 2546 0180 FB60     		str	r3, [r7, #12]
 727:drivers/Src/stm32f767xx_i2c_driver.c ****     temp2 = pI2CHandle->pI2Cx->ISR & (1 << I2C_ISR_RXNE);
 2547              		.loc 1 727 23
 2548 0182 7B68     		ldr	r3, [r7, #4]
 2549 0184 1B68     		ldr	r3, [r3]
 2550              		.loc 1 727 30
 2551 0186 9B69     		ldr	r3, [r3, #24]
 2552              		.loc 1 727 11
 2553 0188 03F00403 		and	r3, r3, #4
 2554 018c BB60     		str	r3, [r7, #8]
 728:drivers/Src/stm32f767xx_i2c_driver.c ****     if (temp1 && temp2)
 2555              		.loc 1 728 8
ARM GAS  /var/folders/0z/tsy30v1j4xl4_7kw94k978ww0000gn/T//cc82wOJ3.s 			page 59


 2556 018e FB68     		ldr	r3, [r7, #12]
 2557 0190 002B     		cmp	r3, #0
 2558 0192 44D0     		beq	.L101
 2559              		.loc 1 728 15 discriminator 1
 2560 0194 BB68     		ldr	r3, [r7, #8]
 2561 0196 002B     		cmp	r3, #0
 2562 0198 41D0     		beq	.L101
 729:drivers/Src/stm32f767xx_i2c_driver.c ****     {
 730:drivers/Src/stm32f767xx_i2c_driver.c ****         // RXNE flag is set
 731:drivers/Src/stm32f767xx_i2c_driver.c **** 
 732:drivers/Src/stm32f767xx_i2c_driver.c ****         //check for device mode
 733:drivers/Src/stm32f767xx_i2c_driver.c ****         if (pI2CHandle->Mode == I2C_MODE_MASTER) 
 2563              		.loc 1 733 23
 2564 019a 7B68     		ldr	r3, [r7, #4]
 2565 019c 9B7F     		ldrb	r3, [r3, #30]	@ zero_extendqisi2
 2566              		.loc 1 733 12
 2567 019e 012B     		cmp	r3, #1
 2568 01a0 32D1     		bne	.L98
 734:drivers/Src/stm32f767xx_i2c_driver.c ****         {
 735:drivers/Src/stm32f767xx_i2c_driver.c ****             // master mode
 736:drivers/Src/stm32f767xx_i2c_driver.c ****             if(pI2CHandle->TxRxState == I2C_BUSY_IN_RX)
 2569              		.loc 1 736 26
 2570 01a2 7B68     		ldr	r3, [r7, #4]
 2571 01a4 1B7F     		ldrb	r3, [r3, #28]	@ zero_extendqisi2
 2572              		.loc 1 736 15
 2573 01a6 012B     		cmp	r3, #1
 2574 01a8 39D1     		bne	.L101
 737:drivers/Src/stm32f767xx_i2c_driver.c ****             {
 738:drivers/Src/stm32f767xx_i2c_driver.c ****                 if (pI2CHandle->RxLen > 0)
 2575              		.loc 1 738 31
 2576 01aa 7B68     		ldr	r3, [r7, #4]
 2577 01ac 9B69     		ldr	r3, [r3, #24]
 2578              		.loc 1 738 20
 2579 01ae 002B     		cmp	r3, #0
 2580 01b0 10D0     		beq	.L99
 739:drivers/Src/stm32f767xx_i2c_driver.c ****                 {
 740:drivers/Src/stm32f767xx_i2c_driver.c ****                     // 1. read RXDR data into buffer
 741:drivers/Src/stm32f767xx_i2c_driver.c ****                     *pI2CHandle->pRxBuffer = pI2CHandle->pI2Cx->RXDR;
 2581              		.loc 1 741 56
 2582 01b2 7B68     		ldr	r3, [r7, #4]
 2583 01b4 1B68     		ldr	r3, [r3]
 2584              		.loc 1 741 63
 2585 01b6 5A6A     		ldr	r2, [r3, #36]
 2586              		.loc 1 741 32
 2587 01b8 7B68     		ldr	r3, [r7, #4]
 2588 01ba 1B69     		ldr	r3, [r3, #16]
 2589              		.loc 1 741 44
 2590 01bc D2B2     		uxtb	r2, r2
 2591 01be 1A70     		strb	r2, [r3]
 742:drivers/Src/stm32f767xx_i2c_driver.c ****                     // 2. decrement RxLen
 743:drivers/Src/stm32f767xx_i2c_driver.c ****                     pI2CHandle->RxLen--;
 2592              		.loc 1 743 31
 2593 01c0 7B68     		ldr	r3, [r7, #4]
 2594 01c2 9B69     		ldr	r3, [r3, #24]
 2595              		.loc 1 743 38
 2596 01c4 5A1E     		subs	r2, r3, #1
 2597 01c6 7B68     		ldr	r3, [r7, #4]
ARM GAS  /var/folders/0z/tsy30v1j4xl4_7kw94k978ww0000gn/T//cc82wOJ3.s 			page 60


 2598 01c8 9A61     		str	r2, [r3, #24]
 744:drivers/Src/stm32f767xx_i2c_driver.c ****                     // 3. increment buffer address
 745:drivers/Src/stm32f767xx_i2c_driver.c ****                     pI2CHandle->pRxBuffer++;
 2599              		.loc 1 745 31
 2600 01ca 7B68     		ldr	r3, [r7, #4]
 2601 01cc 1B69     		ldr	r3, [r3, #16]
 2602              		.loc 1 745 42
 2603 01ce 5A1C     		adds	r2, r3, #1
 2604 01d0 7B68     		ldr	r3, [r7, #4]
 2605 01d2 1A61     		str	r2, [r3, #16]
 2606              	.L99:
 746:drivers/Src/stm32f767xx_i2c_driver.c ****                     
 747:drivers/Src/stm32f767xx_i2c_driver.c ****                 }
 748:drivers/Src/stm32f767xx_i2c_driver.c **** 
 749:drivers/Src/stm32f767xx_i2c_driver.c **** 
 750:drivers/Src/stm32f767xx_i2c_driver.c ****                 if(pI2CHandle->RxLen == 0)
 2607              		.loc 1 750 30
 2608 01d4 7B68     		ldr	r3, [r7, #4]
 2609 01d6 9B69     		ldr	r3, [r3, #24]
 2610              		.loc 1 750 19
 2611 01d8 002B     		cmp	r3, #0
 2612 01da 20D1     		bne	.L101
 751:drivers/Src/stm32f767xx_i2c_driver.c ****                 {
 752:drivers/Src/stm32f767xx_i2c_driver.c ****                     //1. generate the stop condition
 753:drivers/Src/stm32f767xx_i2c_driver.c ****                     if(pI2CHandle->Sr == I2C_DISABLE_SR){
 2613              		.loc 1 753 34
 2614 01dc 7B68     		ldr	r3, [r7, #4]
 2615 01de 93F82430 		ldrb	r3, [r3, #36]	@ zero_extendqisi2
 2616              		.loc 1 753 23
 2617 01e2 002B     		cmp	r3, #0
 2618 01e4 04D1     		bne	.L100
 754:drivers/Src/stm32f767xx_i2c_driver.c ****                         I2C_GenerateStopCondition(pI2CHandle->pI2Cx);
 2619              		.loc 1 754 25
 2620 01e6 7B68     		ldr	r3, [r7, #4]
 2621 01e8 1B68     		ldr	r3, [r3]
 2622 01ea 1846     		mov	r0, r3
 2623 01ec FFF7FEFF 		bl	I2C_GenerateStopCondition
 2624              	.L100:
 755:drivers/Src/stm32f767xx_i2c_driver.c ****                     }
 756:drivers/Src/stm32f767xx_i2c_driver.c ****                         
 757:drivers/Src/stm32f767xx_i2c_driver.c ****                     //2 . Close the I2C rx    
 758:drivers/Src/stm32f767xx_i2c_driver.c ****                     I2C_CloseReceiveData(pI2CHandle);
 2625              		.loc 1 758 21
 2626 01f0 7868     		ldr	r0, [r7, #4]
 2627 01f2 FFF7FEFF 		bl	I2C_CloseReceiveData
 759:drivers/Src/stm32f767xx_i2c_driver.c **** 
 760:drivers/Src/stm32f767xx_i2c_driver.c ****                     
 761:drivers/Src/stm32f767xx_i2c_driver.c ****                     //3. Notify the application
 762:drivers/Src/stm32f767xx_i2c_driver.c ****                     I2C_ApplicationEventCallback(pI2CHandle,I2C_EV_RX_CMPLT);
 2628              		.loc 1 762 21
 2629 01f6 0121     		movs	r1, #1
 2630 01f8 7868     		ldr	r0, [r7, #4]
 2631 01fa FFF7FEFF 		bl	I2C_ApplicationEventCallback
 763:drivers/Src/stm32f767xx_i2c_driver.c **** 
 764:drivers/Src/stm32f767xx_i2c_driver.c ****                     pI2CHandle->pI2Cx->CR2 = 0x0; // clear CR2 register
 2632              		.loc 1 764 31
 2633 01fe 7B68     		ldr	r3, [r7, #4]
ARM GAS  /var/folders/0z/tsy30v1j4xl4_7kw94k978ww0000gn/T//cc82wOJ3.s 			page 61


 2634 0200 1B68     		ldr	r3, [r3]
 2635              		.loc 1 764 44
 2636 0202 0022     		movs	r2, #0
 2637 0204 5A60     		str	r2, [r3, #4]
 765:drivers/Src/stm32f767xx_i2c_driver.c **** 
 766:drivers/Src/stm32f767xx_i2c_driver.c ****                 
 767:drivers/Src/stm32f767xx_i2c_driver.c ****                 }   
 768:drivers/Src/stm32f767xx_i2c_driver.c **** 
 769:drivers/Src/stm32f767xx_i2c_driver.c ****             }
 770:drivers/Src/stm32f767xx_i2c_driver.c ****         }else
 771:drivers/Src/stm32f767xx_i2c_driver.c ****         {
 772:drivers/Src/stm32f767xx_i2c_driver.c ****             // slave mode
 773:drivers/Src/stm32f767xx_i2c_driver.c ****             // check that slave is in receiver mode (DIR bit reset in ISR register)
 774:drivers/Src/stm32f767xx_i2c_driver.c ****             if (!(pI2CHandle->pI2Cx->ISR & (1<<I2C_ISR_DIR)))
 775:drivers/Src/stm32f767xx_i2c_driver.c ****             {
 776:drivers/Src/stm32f767xx_i2c_driver.c **** 
 777:drivers/Src/stm32f767xx_i2c_driver.c ****                 I2C_ApplicationEventCallback(pI2CHandle, I2C_EV_DATA_RCV);
 778:drivers/Src/stm32f767xx_i2c_driver.c ****                 
 779:drivers/Src/stm32f767xx_i2c_driver.c ****                 // NBYTES initialized to 0x1
 780:drivers/Src/stm32f767xx_i2c_driver.c ****                 //pI2CHandle->pI2Cx->CR2 |= (1 << I2C_CR2_NBYTES);
 781:drivers/Src/stm32f767xx_i2c_driver.c **** 
 782:drivers/Src/stm32f767xx_i2c_driver.c ****             }
 783:drivers/Src/stm32f767xx_i2c_driver.c ****         }
 784:drivers/Src/stm32f767xx_i2c_driver.c ****     }
 785:drivers/Src/stm32f767xx_i2c_driver.c **** 
 786:drivers/Src/stm32f767xx_i2c_driver.c **** }
 2638              		.loc 1 786 1
 2639 0206 0AE0     		b	.L101
 2640              	.L98:
 774:drivers/Src/stm32f767xx_i2c_driver.c ****             {
 2641              		.loc 1 774 29
 2642 0208 7B68     		ldr	r3, [r7, #4]
 2643 020a 1B68     		ldr	r3, [r3]
 774:drivers/Src/stm32f767xx_i2c_driver.c ****             {
 2644              		.loc 1 774 36
 2645 020c 9B69     		ldr	r3, [r3, #24]
 774:drivers/Src/stm32f767xx_i2c_driver.c ****             {
 2646              		.loc 1 774 42
 2647 020e 03F48033 		and	r3, r3, #65536
 774:drivers/Src/stm32f767xx_i2c_driver.c ****             {
 2648              		.loc 1 774 16
 2649 0212 002B     		cmp	r3, #0
 2650 0214 03D1     		bne	.L101
 777:drivers/Src/stm32f767xx_i2c_driver.c ****                 
 2651              		.loc 1 777 17
 2652 0216 0521     		movs	r1, #5
 2653 0218 7868     		ldr	r0, [r7, #4]
 2654 021a FFF7FEFF 		bl	I2C_ApplicationEventCallback
 2655              	.L101:
 2656              		.loc 1 786 1
 2657 021e 00BF     		nop
 2658 0220 1037     		adds	r7, r7, #16
 2659              		.cfi_def_cfa_offset 8
 2660 0222 BD46     		mov	sp, r7
 2661              		.cfi_def_cfa_register 13
 2662              		@ sp needed
 2663 0224 80BD     		pop	{r7, pc}
ARM GAS  /var/folders/0z/tsy30v1j4xl4_7kw94k978ww0000gn/T//cc82wOJ3.s 			page 62


 2664              		.cfi_endproc
 2665              	.LFE22:
 2667              		.section	.text.I2C_ER_IRQHandling,"ax",%progbits
 2668              		.align	1
 2669              		.global	I2C_ER_IRQHandling
 2670              		.syntax unified
 2671              		.thumb
 2672              		.thumb_func
 2674              	I2C_ER_IRQHandling:
 2675              	.LFB23:
 787:drivers/Src/stm32f767xx_i2c_driver.c **** 
 788:drivers/Src/stm32f767xx_i2c_driver.c **** 
 789:drivers/Src/stm32f767xx_i2c_driver.c **** 
 790:drivers/Src/stm32f767xx_i2c_driver.c **** 
 791:drivers/Src/stm32f767xx_i2c_driver.c **** 
 792:drivers/Src/stm32f767xx_i2c_driver.c **** /**
 793:drivers/Src/stm32f767xx_i2c_driver.c ****  * @brief I2C Error IRQ Handling
 794:drivers/Src/stm32f767xx_i2c_driver.c ****  * 
 795:drivers/Src/stm32f767xx_i2c_driver.c ****  * @param pI2CHandle 
 796:drivers/Src/stm32f767xx_i2c_driver.c ****  */
 797:drivers/Src/stm32f767xx_i2c_driver.c **** void I2C_ER_IRQHandling(I2C_Handle_t *pI2CHandle)
 798:drivers/Src/stm32f767xx_i2c_driver.c **** {
 2676              		.loc 1 798 1
 2677              		.cfi_startproc
 2678              		@ args = 0, pretend = 0, frame = 16
 2679              		@ frame_needed = 1, uses_anonymous_args = 0
 2680 0000 80B5     		push	{r7, lr}
 2681              		.cfi_def_cfa_offset 8
 2682              		.cfi_offset 7, -8
 2683              		.cfi_offset 14, -4
 2684 0002 84B0     		sub	sp, sp, #16
 2685              		.cfi_def_cfa_offset 24
 2686 0004 00AF     		add	r7, sp, #0
 2687              		.cfi_def_cfa_register 7
 2688 0006 7860     		str	r0, [r7, #4]
 799:drivers/Src/stm32f767xx_i2c_driver.c ****     uint32_t temp1,temp2;
 800:drivers/Src/stm32f767xx_i2c_driver.c **** 
 801:drivers/Src/stm32f767xx_i2c_driver.c ****     //Know the status of ERRIE control bit in CR1
 802:drivers/Src/stm32f767xx_i2c_driver.c ****     temp2 = (pI2CHandle->pI2Cx->CR1) & ( 1 << I2C_CR1_ERRIE);
 2689              		.loc 1 802 24
 2690 0008 7B68     		ldr	r3, [r7, #4]
 2691 000a 1B68     		ldr	r3, [r3]
 2692              		.loc 1 802 31
 2693 000c 1B68     		ldr	r3, [r3]
 2694              		.loc 1 802 11
 2695 000e 03F08003 		and	r3, r3, #128
 2696 0012 FB60     		str	r3, [r7, #12]
 803:drivers/Src/stm32f767xx_i2c_driver.c **** 
 804:drivers/Src/stm32f767xx_i2c_driver.c **** 
 805:drivers/Src/stm32f767xx_i2c_driver.c ****     /***********************Check for Bus error************************************/ 
 806:drivers/Src/stm32f767xx_i2c_driver.c ****     temp1 = (pI2CHandle->pI2Cx->ISR) & ( 1<< I2C_ISR_BERR);
 2697              		.loc 1 806 24
 2698 0014 7B68     		ldr	r3, [r7, #4]
 2699 0016 1B68     		ldr	r3, [r3]
 2700              		.loc 1 806 31
 2701 0018 9B69     		ldr	r3, [r3, #24]
 2702              		.loc 1 806 11
ARM GAS  /var/folders/0z/tsy30v1j4xl4_7kw94k978ww0000gn/T//cc82wOJ3.s 			page 63


 2703 001a 03F48073 		and	r3, r3, #256
 2704 001e BB60     		str	r3, [r7, #8]
 807:drivers/Src/stm32f767xx_i2c_driver.c ****     if(temp1  && temp2 )
 2705              		.loc 1 807 7
 2706 0020 BB68     		ldr	r3, [r7, #8]
 2707 0022 002B     		cmp	r3, #0
 2708 0024 0ED0     		beq	.L103
 2709              		.loc 1 807 15 discriminator 1
 2710 0026 FB68     		ldr	r3, [r7, #12]
 2711 0028 002B     		cmp	r3, #0
 2712 002a 0BD0     		beq	.L103
 808:drivers/Src/stm32f767xx_i2c_driver.c ****     {
 809:drivers/Src/stm32f767xx_i2c_driver.c ****         //This is Bus error
 810:drivers/Src/stm32f767xx_i2c_driver.c ****         
 811:drivers/Src/stm32f767xx_i2c_driver.c ****         //clear the bus error flag 
 812:drivers/Src/stm32f767xx_i2c_driver.c ****         pI2CHandle->pI2Cx->ICR |= ( 1 << I2C_ICR_BERRCF);
 2713              		.loc 1 812 19
 2714 002c 7B68     		ldr	r3, [r7, #4]
 2715 002e 1B68     		ldr	r3, [r3]
 2716              		.loc 1 812 32
 2717 0030 DA69     		ldr	r2, [r3, #28]
 2718              		.loc 1 812 19
 2719 0032 7B68     		ldr	r3, [r7, #4]
 2720 0034 1B68     		ldr	r3, [r3]
 2721              		.loc 1 812 32
 2722 0036 42F48072 		orr	r2, r2, #256
 2723 003a DA61     		str	r2, [r3, #28]
 813:drivers/Src/stm32f767xx_i2c_driver.c ****         
 814:drivers/Src/stm32f767xx_i2c_driver.c ****         //notify the application about the error 
 815:drivers/Src/stm32f767xx_i2c_driver.c ****         I2C_ApplicationEventCallback(pI2CHandle,I2C_ERROR_BERR);
 2724              		.loc 1 815 9
 2725 003c 0021     		movs	r1, #0
 2726 003e 7868     		ldr	r0, [r7, #4]
 2727 0040 FFF7FEFF 		bl	I2C_ApplicationEventCallback
 2728              	.L103:
 816:drivers/Src/stm32f767xx_i2c_driver.c ****     }
 817:drivers/Src/stm32f767xx_i2c_driver.c **** 
 818:drivers/Src/stm32f767xx_i2c_driver.c ****     /***********************Check for arbitration lost error************************************/ 
 819:drivers/Src/stm32f767xx_i2c_driver.c ****     temp1 = (pI2CHandle->pI2Cx->ISR) & ( 1<< I2C_ISR_ARLO);
 2729              		.loc 1 819 24
 2730 0044 7B68     		ldr	r3, [r7, #4]
 2731 0046 1B68     		ldr	r3, [r3]
 2732              		.loc 1 819 31
 2733 0048 9B69     		ldr	r3, [r3, #24]
 2734              		.loc 1 819 11
 2735 004a 03F40073 		and	r3, r3, #512
 2736 004e BB60     		str	r3, [r7, #8]
 820:drivers/Src/stm32f767xx_i2c_driver.c ****     if(temp1  && temp2)
 2737              		.loc 1 820 7
 2738 0050 BB68     		ldr	r3, [r7, #8]
 2739 0052 002B     		cmp	r3, #0
 2740 0054 0ED0     		beq	.L104
 2741              		.loc 1 820 15 discriminator 1
 2742 0056 FB68     		ldr	r3, [r7, #12]
 2743 0058 002B     		cmp	r3, #0
 2744 005a 0BD0     		beq	.L104
 821:drivers/Src/stm32f767xx_i2c_driver.c ****     {
ARM GAS  /var/folders/0z/tsy30v1j4xl4_7kw94k978ww0000gn/T//cc82wOJ3.s 			page 64


 822:drivers/Src/stm32f767xx_i2c_driver.c ****         //This is arbitration lost error
 823:drivers/Src/stm32f767xx_i2c_driver.c ****         
 824:drivers/Src/stm32f767xx_i2c_driver.c ****         //clear the arbitration lost error flag
 825:drivers/Src/stm32f767xx_i2c_driver.c ****         pI2CHandle->pI2Cx->ICR |= ( 1 << I2C_ICR_ARLOCF);
 2745              		.loc 1 825 19
 2746 005c 7B68     		ldr	r3, [r7, #4]
 2747 005e 1B68     		ldr	r3, [r3]
 2748              		.loc 1 825 32
 2749 0060 DA69     		ldr	r2, [r3, #28]
 2750              		.loc 1 825 19
 2751 0062 7B68     		ldr	r3, [r7, #4]
 2752 0064 1B68     		ldr	r3, [r3]
 2753              		.loc 1 825 32
 2754 0066 42F40072 		orr	r2, r2, #512
 2755 006a DA61     		str	r2, [r3, #28]
 826:drivers/Src/stm32f767xx_i2c_driver.c **** 
 827:drivers/Src/stm32f767xx_i2c_driver.c ****         //notify the application about the error
 828:drivers/Src/stm32f767xx_i2c_driver.c ****         I2C_ApplicationEventCallback(pI2CHandle,I2C_ERROR_ARLO);     
 2756              		.loc 1 828 9
 2757 006c 0121     		movs	r1, #1
 2758 006e 7868     		ldr	r0, [r7, #4]
 2759 0070 FFF7FEFF 		bl	I2C_ApplicationEventCallback
 2760              	.L104:
 829:drivers/Src/stm32f767xx_i2c_driver.c ****     }
 830:drivers/Src/stm32f767xx_i2c_driver.c **** 
 831:drivers/Src/stm32f767xx_i2c_driver.c ****     /***********************Check for Overrun/underrun error************************************/
 832:drivers/Src/stm32f767xx_i2c_driver.c ****     temp1 = (pI2CHandle->pI2Cx->ISR) & ( 1<< I2C_ISR_OVR);
 2761              		.loc 1 832 24
 2762 0074 7B68     		ldr	r3, [r7, #4]
 2763 0076 1B68     		ldr	r3, [r3]
 2764              		.loc 1 832 31
 2765 0078 9B69     		ldr	r3, [r3, #24]
 2766              		.loc 1 832 11
 2767 007a 03F48063 		and	r3, r3, #1024
 2768 007e BB60     		str	r3, [r7, #8]
 833:drivers/Src/stm32f767xx_i2c_driver.c ****     if(temp1  && temp2)
 2769              		.loc 1 833 7
 2770 0080 BB68     		ldr	r3, [r7, #8]
 2771 0082 002B     		cmp	r3, #0
 2772 0084 0ED0     		beq	.L105
 2773              		.loc 1 833 15 discriminator 1
 2774 0086 FB68     		ldr	r3, [r7, #12]
 2775 0088 002B     		cmp	r3, #0
 2776 008a 0BD0     		beq	.L105
 834:drivers/Src/stm32f767xx_i2c_driver.c ****     {
 835:drivers/Src/stm32f767xx_i2c_driver.c ****         //This is Overrun/underrun error
 836:drivers/Src/stm32f767xx_i2c_driver.c ****         
 837:drivers/Src/stm32f767xx_i2c_driver.c ****         //clear the Overrun/underrun error flag
 838:drivers/Src/stm32f767xx_i2c_driver.c ****         pI2CHandle->pI2Cx->ICR |= ( 1 << I2C_ICR_OVRCF);
 2777              		.loc 1 838 19
 2778 008c 7B68     		ldr	r3, [r7, #4]
 2779 008e 1B68     		ldr	r3, [r3]
 2780              		.loc 1 838 32
 2781 0090 DA69     		ldr	r2, [r3, #28]
 2782              		.loc 1 838 19
 2783 0092 7B68     		ldr	r3, [r7, #4]
 2784 0094 1B68     		ldr	r3, [r3]
ARM GAS  /var/folders/0z/tsy30v1j4xl4_7kw94k978ww0000gn/T//cc82wOJ3.s 			page 65


 2785              		.loc 1 838 32
 2786 0096 42F48062 		orr	r2, r2, #1024
 2787 009a DA61     		str	r2, [r3, #28]
 839:drivers/Src/stm32f767xx_i2c_driver.c **** 
 840:drivers/Src/stm32f767xx_i2c_driver.c ****         //notify the application about the error
 841:drivers/Src/stm32f767xx_i2c_driver.c ****         I2C_ApplicationEventCallback(pI2CHandle,I2C_ERROR_OVR);     
 2788              		.loc 1 841 9
 2789 009c 0221     		movs	r1, #2
 2790 009e 7868     		ldr	r0, [r7, #4]
 2791 00a0 FFF7FEFF 		bl	I2C_ApplicationEventCallback
 2792              	.L105:
 842:drivers/Src/stm32f767xx_i2c_driver.c ****     }
 843:drivers/Src/stm32f767xx_i2c_driver.c **** 
 844:drivers/Src/stm32f767xx_i2c_driver.c ****     /***********************Check for Time out error************************************/
 845:drivers/Src/stm32f767xx_i2c_driver.c ****     temp1 = (pI2CHandle->pI2Cx->ISR) & ( 1<< I2C_ISR_TIMEOUT);
 2793              		.loc 1 845 24
 2794 00a4 7B68     		ldr	r3, [r7, #4]
 2795 00a6 1B68     		ldr	r3, [r3]
 2796              		.loc 1 845 31
 2797 00a8 9B69     		ldr	r3, [r3, #24]
 2798              		.loc 1 845 11
 2799 00aa 03F48053 		and	r3, r3, #4096
 2800 00ae BB60     		str	r3, [r7, #8]
 846:drivers/Src/stm32f767xx_i2c_driver.c ****     if(temp1  && temp2)
 2801              		.loc 1 846 7
 2802 00b0 BB68     		ldr	r3, [r7, #8]
 2803 00b2 002B     		cmp	r3, #0
 2804 00b4 0ED0     		beq	.L107
 2805              		.loc 1 846 15 discriminator 1
 2806 00b6 FB68     		ldr	r3, [r7, #12]
 2807 00b8 002B     		cmp	r3, #0
 2808 00ba 0BD0     		beq	.L107
 847:drivers/Src/stm32f767xx_i2c_driver.c ****     {
 848:drivers/Src/stm32f767xx_i2c_driver.c ****         //This is Time out error
 849:drivers/Src/stm32f767xx_i2c_driver.c ****         
 850:drivers/Src/stm32f767xx_i2c_driver.c ****         //clear the Time out error flag
 851:drivers/Src/stm32f767xx_i2c_driver.c ****         pI2CHandle->pI2Cx->ICR |= ( 1 << I2C_ICR_TIMEOUTCF);
 2809              		.loc 1 851 19
 2810 00bc 7B68     		ldr	r3, [r7, #4]
 2811 00be 1B68     		ldr	r3, [r3]
 2812              		.loc 1 851 32
 2813 00c0 DA69     		ldr	r2, [r3, #28]
 2814              		.loc 1 851 19
 2815 00c2 7B68     		ldr	r3, [r7, #4]
 2816 00c4 1B68     		ldr	r3, [r3]
 2817              		.loc 1 851 32
 2818 00c6 42F48052 		orr	r2, r2, #4096
 2819 00ca DA61     		str	r2, [r3, #28]
 852:drivers/Src/stm32f767xx_i2c_driver.c **** 
 853:drivers/Src/stm32f767xx_i2c_driver.c ****         //notify the application about the error 
 854:drivers/Src/stm32f767xx_i2c_driver.c ****         I2C_ApplicationEventCallback(pI2CHandle,I2C_ERROR_TIMEOUT); 
 2820              		.loc 1 854 9
 2821 00cc 0321     		movs	r1, #3
 2822 00ce 7868     		ldr	r0, [r7, #4]
 2823 00d0 FFF7FEFF 		bl	I2C_ApplicationEventCallback
 2824              	.L107:
 855:drivers/Src/stm32f767xx_i2c_driver.c ****     }
ARM GAS  /var/folders/0z/tsy30v1j4xl4_7kw94k978ww0000gn/T//cc82wOJ3.s 			page 66


 856:drivers/Src/stm32f767xx_i2c_driver.c **** }...
 2825              		.loc 1 856 1
 2826 00d4 00BF     		nop
 2827 00d6 1037     		adds	r7, r7, #16
 2828              		.cfi_def_cfa_offset 8
 2829 00d8 BD46     		mov	sp, r7
 2830              		.cfi_def_cfa_register 13
 2831              		@ sp needed
 2832 00da 80BD     		pop	{r7, pc}
 2833              		.cfi_endproc
 2834              	.LFE23:
 2836              		.text
 2837              	.Letext0:
 2838              		.file 2 "/Users/johannes/Library/Application Support/Code/User/globalStorage/bmd.stm32-for-vscode/
 2839              		.file 3 "/Users/johannes/Library/Application Support/Code/User/globalStorage/bmd.stm32-for-vscode/
 2840              		.file 4 "drivers/Inc/stm32f767xx.h"
 2841              		.file 5 "drivers/Inc/stm32f767xx_i2c_driver.h"
ARM GAS  /var/folders/0z/tsy30v1j4xl4_7kw94k978ww0000gn/T//cc82wOJ3.s 			page 67

